Component: ARM Compiler 5.06 update 4 (build 422) Tool: armlink [4d35d2]

==============================================================================

Section Cross References

    application.o(.text) refers to led.o(.text) for rt_hw_led_init
    application.o(.text) refers to thread.o(.text) for rt_thread_delay
    application.o(.text) refers to components.o(.text) for rt_components_init
    application.o(.text) refers to application.o(.bss) for led_stack
    startup.o(.text) refers to kservice.o(.text) for rt_kprintf
    startup.o(.text) refers to board.o(.text) for rt_hw_board_init
    startup.o(.text) refers to mem.o(.text) for rt_system_heap_init
    startup.o(.text) refers to scheduler.o(.text) for rt_system_scheduler_init
    startup.o(.text) refers to timer.o(.text) for rt_system_timer_init
    startup.o(.text) refers to application.o(.text) for rt_application_init
    startup.o(.text) refers to idle.o(.text) for rt_thread_idle_init
    startup.o(.text) refers to context_rvds.o(.text) for rt_hw_interrupt_disable
    board.o(.text) refers to misc.o(.text) for NVIC_SetVectorTable
    board.o(.text) refers to irq.o(.text) for rt_interrupt_enter
    board.o(.text) refers to clock.o(.text) for rt_tick_increase
    board.o(.text) refers to usart.o(.text) for rt_hw_usart_init
    board.o(.text) refers to kservice.o(.text) for rt_console_set_device
    board.o(.text) refers to components.o(.text) for rt_components_board_init
    board.o(.text) refers to system_stm32f10x.o(.data) for SystemCoreClock
    usart.o(.text) refers to kservice.o(.text) for rt_assert_handler
    usart.o(.text) refers to stm32f10x_usart.o(.text) for USART_Init
    usart.o(.text) refers to stm32f10x_rcc.o(.text) for RCC_AHBPeriphClockCmd
    usart.o(.text) refers to stm32f10x_dma.o(.text) for DMA_DeInit
    usart.o(.text) refers to misc.o(.text) for NVIC_Init
    usart.o(.text) refers to serial.o(.text) for rt_hw_serial_isr
    usart.o(.text) refers to irq.o(.text) for rt_interrupt_enter
    usart.o(.text) refers to stm32f10x_gpio.o(.text) for GPIO_Init
    usart.o(.text) refers to usart.o(.constdata) for __FUNCTION__
    usart.o(.text) refers to usart.o(.bss) for serial1
    usart.o(.text) refers to usart.o(.data) for uart1
    usart.o(.constdata) refers to usart.o(.text) for stm32_configure
    system_stm32f10x.o(.text) refers to system_stm32f10x.o(.data) for SystemCoreClock
    startup_stm32f10x_hd.o(RESET) refers to startup_stm32f10x_hd.o(STACK) for __initial_sp
    startup_stm32f10x_hd.o(RESET) refers to startup_stm32f10x_hd.o(.text) for Reset_Handler
    startup_stm32f10x_hd.o(RESET) refers to stm32f10x_it.o(.text) for NMI_Handler
    startup_stm32f10x_hd.o(RESET) refers to context_rvds.o(.text) for HardFault_Handler
    startup_stm32f10x_hd.o(RESET) refers to board.o(.text) for SysTick_Handler
    startup_stm32f10x_hd.o(RESET) refers to mcu_rtc.o(.text) for RTC_IRQHandler
    startup_stm32f10x_hd.o(RESET) refers to mcu_exit.o(.text) for EXTI0_IRQHandler
    startup_stm32f10x_hd.o(RESET) refers to usart.o(.text) for DMA1_Channel5_IRQHandler
    startup_stm32f10x_hd.o(.text) refers to system_stm32f10x.o(.text) for SystemInit
    startup_stm32f10x_hd.o(.text) refers to entry.o(.ARM.Collect$$$$00000000) for __main
    misc.o(.text) refers to startup.o(.text) for assert_failed
    misc.o(.text) refers to misc.o(.conststring) for .conststring
    stm32f10x_adc.o(.text) refers to startup.o(.text) for assert_failed
    stm32f10x_adc.o(.text) refers to stm32f10x_rcc.o(.text) for RCC_APB2PeriphResetCmd
    stm32f10x_adc.o(.text) refers to stm32f10x_adc.o(.conststring) for .conststring
    stm32f10x_bkp.o(.text) refers to stm32f10x_rcc.o(.text) for RCC_BackupResetCmd
    stm32f10x_bkp.o(.text) refers to startup.o(.text) for assert_failed
    stm32f10x_bkp.o(.text) refers to stm32f10x_bkp.o(.conststring) for .conststring
    stm32f10x_can.o(.text) refers to startup.o(.text) for assert_failed
    stm32f10x_can.o(.text) refers to stm32f10x_rcc.o(.text) for RCC_APB1PeriphResetCmd
    stm32f10x_can.o(.text) refers to stm32f10x_can.o(.conststring) for .conststring
    stm32f10x_cec.o(.text) refers to stm32f10x_rcc.o(.text) for RCC_APB1PeriphResetCmd
    stm32f10x_cec.o(.text) refers to startup.o(.text) for assert_failed
    stm32f10x_cec.o(.text) refers to stm32f10x_cec.o(.conststring) for .conststring
    stm32f10x_dac.o(.text) refers to stm32f10x_rcc.o(.text) for RCC_APB1PeriphResetCmd
    stm32f10x_dac.o(.text) refers to startup.o(.text) for assert_failed
    stm32f10x_dac.o(.text) refers to stm32f10x_dac.o(.conststring) for .conststring
    stm32f10x_dbgmcu.o(.text) refers to startup.o(.text) for assert_failed
    stm32f10x_dbgmcu.o(.text) refers to stm32f10x_dbgmcu.o(.conststring) for .conststring
    stm32f10x_dma.o(.text) refers to startup.o(.text) for assert_failed
    stm32f10x_dma.o(.text) refers to stm32f10x_dma.o(.conststring) for .conststring
    stm32f10x_exti.o(.text) refers to startup.o(.text) for assert_failed
    stm32f10x_exti.o(.text) refers to stm32f10x_exti.o(.conststring) for .conststring
    stm32f10x_flash.o(.text) refers to startup.o(.text) for assert_failed
    stm32f10x_flash.o(.text) refers to stm32f10x_flash.o(.conststring) for .conststring
    stm32f10x_fsmc.o(.text) refers to startup.o(.text) for assert_failed
    stm32f10x_fsmc.o(.text) refers to stm32f10x_fsmc.o(.conststring) for .conststring
    stm32f10x_gpio.o(.text) refers to startup.o(.text) for assert_failed
    stm32f10x_gpio.o(.text) refers to stm32f10x_rcc.o(.text) for RCC_APB2PeriphResetCmd
    stm32f10x_gpio.o(.text) refers to stm32f10x_gpio.o(.conststring) for .conststring
    stm32f10x_i2c.o(.text) refers to startup.o(.text) for assert_failed
    stm32f10x_i2c.o(.text) refers to stm32f10x_rcc.o(.text) for RCC_APB1PeriphResetCmd
    stm32f10x_i2c.o(.text) refers to stm32f10x_i2c.o(.conststring) for .conststring
    stm32f10x_iwdg.o(.text) refers to startup.o(.text) for assert_failed
    stm32f10x_iwdg.o(.text) refers to stm32f10x_iwdg.o(.conststring) for .conststring
    stm32f10x_pwr.o(.text) refers to stm32f10x_rcc.o(.text) for RCC_APB1PeriphResetCmd
    stm32f10x_pwr.o(.text) refers to startup.o(.text) for assert_failed
    stm32f10x_pwr.o(.text) refers to stm32f10x_pwr.o(.conststring) for .conststring
    stm32f10x_rcc.o(.text) refers to startup.o(.text) for assert_failed
    stm32f10x_rcc.o(.text) refers to stm32f10x_rcc.o(.conststring) for .conststring
    stm32f10x_rcc.o(.text) refers to stm32f10x_rcc.o(.data) for APBAHBPrescTable
    stm32f10x_rtc.o(.text) refers to startup.o(.text) for assert_failed
    stm32f10x_rtc.o(.text) refers to stm32f10x_rtc.o(.conststring) for .conststring
    stm32f10x_sdio.o(.text) refers to startup.o(.text) for assert_failed
    stm32f10x_sdio.o(.text) refers to stm32f10x_sdio.o(.conststring) for .conststring
    stm32f10x_spi.o(.text) refers to startup.o(.text) for assert_failed
    stm32f10x_spi.o(.text) refers to stm32f10x_rcc.o(.text) for RCC_APB2PeriphResetCmd
    stm32f10x_spi.o(.text) refers to stm32f10x_spi.o(.conststring) for .conststring
    stm32f10x_tim.o(.text) refers to startup.o(.text) for assert_failed
    stm32f10x_tim.o(.text) refers to stm32f10x_rcc.o(.text) for RCC_APB2PeriphResetCmd
    stm32f10x_tim.o(.text) refers to stm32f10x_tim.o(.conststring) for .conststring
    stm32f10x_usart.o(.text) refers to startup.o(.text) for assert_failed
    stm32f10x_usart.o(.text) refers to stm32f10x_rcc.o(.text) for RCC_APB2PeriphResetCmd
    stm32f10x_usart.o(.text) refers to stm32f10x_usart.o(.conststring) for .conststring
    stm32f10x_wwdg.o(.text) refers to stm32f10x_rcc.o(.text) for RCC_APB1PeriphResetCmd
    stm32f10x_wwdg.o(.text) refers to startup.o(.text) for assert_failed
    stm32f10x_wwdg.o(.text) refers to stm32f10x_wwdg.o(.conststring) for .conststring
    clock.o(.text) refers to context_rvds.o(.text) for rt_hw_interrupt_disable
    clock.o(.text) refers to thread.o(.text) for rt_thread_self
    clock.o(.text) refers to timer.o(.text) for rt_timer_check
    clock.o(.text) refers to clock.o(.data) for rt_tick
    device.o(.text) refers to thread.o(.text) for rt_thread_self
    device.o(.text) refers to scheduler.o(.text) for rt_enter_critical
    device.o(.text) refers to kservice.o(.text) for rt_strncmp
    device.o(.text) refers to object.o(.text) for rt_object_init
    device.o(.text) refers to object.o(.data) for rt_object_container
    device.o(.text) refers to device.o(.constdata) for __FUNCTION__
    idle.o(.text) refers to context_rvds.o(.text) for rt_hw_interrupt_disable
    idle.o(.text) refers to irq.o(.text) for rt_interrupt_get_nest
    idle.o(.text) refers to kservice.o(.text) for rt_kprintf
    idle.o(.text) refers to object.o(.text) for rt_object_is_systemobject
    idle.o(.text) refers to mem.o(.text) for rt_free
    idle.o(.text) refers to thread.o(.text) for rt_thread_init
    idle.o(.text) refers to idle.o(.data) for rt_thread_idle_hook
    idle.o(.text) refers to idle.o(.constdata) for __FUNCTION__
    idle.o(.text) refers to scheduler.o(.data) for rt_thread_defunct
    idle.o(.text) refers to idle.o(.bss) for rt_thread_stack
    ipc.o(.text) refers to thread.o(.text) for rt_thread_suspend
    ipc.o(.text) refers to context_rvds.o(.text) for rt_hw_interrupt_disable
    ipc.o(.text) refers to kservice.o(.text) for rt_assert_handler
    ipc.o(.text) refers to object.o(.text) for rt_object_init
    ipc.o(.text) refers to irq.o(.text) for rt_interrupt_get_nest
    ipc.o(.text) refers to timer.o(.text) for rt_timer_control
    ipc.o(.text) refers to scheduler.o(.text) for rt_schedule
    ipc.o(.text) refers to ipc.o(.constdata) for __FUNCTION__
    ipc.o(.text) refers to object.o(.data) for rt_object_trytake_hook
    ipc.o(.text) refers to mem.o(.text) for rt_malloc
    ipc.o(.text) refers to clock.o(.text) for rt_tick_get
    irq.o(.text) refers to context_rvds.o(.text) for rt_hw_interrupt_disable
    irq.o(.text) refers to irq.o(.data) for rt_interrupt_enter_hook
    kservice.o(.text) refers to irq.o(.text) for rt_interrupt_get_nest
    kservice.o(.text) refers to thread.o(.text) for rt_thread_self
    kservice.o(.text) refers to mem.o(.text) for rt_malloc
    kservice.o(.text) refers to kservice.o(.data) for _errno
    kservice.o(.text) refers to kservice.o(.constdata) for large_digits
    kservice.o(.text) refers to device.o(.text) for rt_device_write
    kservice.o(.text) refers to kservice.o(.bss) for rt_log_buf
    mem.o(.text) refers to kservice.o(.text) for rt_assert_handler
    mem.o(.text) refers to context_rvds.o(.text) for rt_hw_interrupt_disable
    mem.o(.text) refers to irq.o(.text) for rt_interrupt_get_nest
    mem.o(.text) refers to ipc.o(.text) for rt_sem_init
    mem.o(.text) refers to mem.o(.data) for rt_malloc_hook
    mem.o(.text) refers to mem.o(.constdata) for __FUNCTION__
    mem.o(.text) refers to mem.o(.bss) for heap_sem
    mem.o(.text) refers to mem.o(.conststring) for .conststring
    mem.o(FSymTab) refers to mem.o(.rodata.name) for __fsym_list_mem_name
    mem.o(FSymTab) refers to mem.o(.text) for list_mem
    mempool.o(.text) refers to kservice.o(.text) for rt_assert_handler
    mempool.o(.text) refers to object.o(.text) for rt_object_init
    mempool.o(.text) refers to context_rvds.o(.text) for rt_hw_interrupt_disable
    mempool.o(.text) refers to thread.o(.text) for rt_thread_resume
    mempool.o(.text) refers to irq.o(.text) for rt_interrupt_get_nest
    mempool.o(.text) refers to mem.o(.text) for rt_malloc
    mempool.o(.text) refers to clock.o(.text) for rt_tick_get
    mempool.o(.text) refers to timer.o(.text) for rt_timer_control
    mempool.o(.text) refers to scheduler.o(.text) for rt_schedule
    mempool.o(.text) refers to mempool.o(.data) for rt_mp_alloc_hook
    mempool.o(.text) refers to mempool.o(.constdata) for __FUNCTION__
    object.o(.text) refers to kservice.o(.text) for rt_strncpy
    object.o(.text) refers to context_rvds.o(.text) for rt_hw_interrupt_disable
    object.o(.text) refers to irq.o(.text) for rt_interrupt_get_nest
    object.o(.text) refers to mem.o(.text) for rt_malloc
    object.o(.text) refers to scheduler.o(.text) for rt_enter_critical
    object.o(.text) refers to object.o(.data) for rt_object_attach_hook
    object.o(.text) refers to object.o(.constdata) for __FUNCTION__
    scheduler.o(.text) refers to kservice.o(.text) for rt_assert_handler
    scheduler.o(.text) refers to cmd.o(.text) for list_thread
    scheduler.o(.text) refers to context_rvds.o(.text) for rt_hw_interrupt_disable
    scheduler.o(.text) refers to scheduler.o(.data) for rt_scheduler_hook
    scheduler.o(.text) refers to scheduler.o(.constdata) for __FUNCTION__
    scheduler.o(.text) refers to scheduler.o(.bss) for rt_thread_priority_table
    scheduler.o(.text) refers to irq.o(.data) for rt_interrupt_nest
    thread.o(.text) refers to context_rvds.o(.text) for rt_hw_interrupt_disable
    thread.o(.text) refers to scheduler.o(.text) for rt_schedule_remove_thread
    thread.o(.text) refers to timer.o(.text) for rt_timer_detach
    thread.o(.text) refers to object.o(.text) for rt_object_is_systemobject
    thread.o(.text) refers to kservice.o(.text) for rt_assert_handler
    thread.o(.text) refers to cpuport.o(.text) for rt_hw_stack_init
    thread.o(.text) refers to mem.o(.text) for rt_malloc
    thread.o(.text) refers to thread.o(.data) for rt_thread_suspend_hook
    thread.o(.text) refers to scheduler.o(.data) for rt_current_thread
    thread.o(.text) refers to thread.o(.constdata) for __FUNCTION__
    thread.o(.text) refers to scheduler.o(.bss) for rt_thread_priority_table
    thread.o(.text) refers to object.o(.data) for rt_object_container
    timer.o(.text) refers to kservice.o(.text) for rt_assert_handler
    timer.o(.text) refers to object.o(.text) for rt_object_init
    timer.o(.text) refers to context_rvds.o(.text) for rt_hw_interrupt_disable
    timer.o(.text) refers to clock.o(.text) for rt_tick_get
    timer.o(.text) refers to timer.o(.data) for rt_timer_timeout_hook
    timer.o(.text) refers to timer.o(.constdata) for __FUNCTION__
    timer.o(.text) refers to object.o(.data) for rt_object_take_hook
    cpuport.o(.text) refers to kservice.o(.text) for rt_kprintf
    cpuport.o(.text) refers to thread.o(.text) for rt_thread_self
    cpuport.o(.text) refers to cmd.o(.text) for list_thread
    cpuport.o(.text) refers to cpuport.o(.data) for rt_exception_hook
    cpuport.o(.text) refers to cpuport.o(.constdata) for __FUNCTION__
    context_rvds.o(.text) refers to cpuport.o(.text) for rt_hw_hard_fault_exception
    context_rvds.o(.text) refers to cpuport.o(.data) for rt_thread_switch_interrupt_flag
    showmem.o(.text) refers to kservice.o(.text) for rt_assert_handler
    showmem.o(.text) refers to showmem.o(.constdata) for __FUNCTION__
    serial.o(.text) refers to kservice.o(.text) for rt_assert_handler
    serial.o(.text) refers to context_rvds.o(.text) for rt_hw_interrupt_disable
    serial.o(.text) refers to mem.o(.text) for rt_malloc
    serial.o(.text) refers to serial.o(.constdata) for __FUNCTION__
    serial.o(.text) refers to dataqueue.o(.text) for rt_data_queue_init
    serial.o(.text) refers to completion.o(.text) for rt_completion_init
    serial.o(.text) refers to device.o(.text) for rt_device_register
    completion.o(.text) refers to kservice.o(.text) for rt_assert_handler
    completion.o(.text) refers to context_rvds.o(.text) for rt_hw_interrupt_disable
    completion.o(.text) refers to thread.o(.text) for rt_thread_self
    completion.o(.text) refers to irq.o(.text) for rt_interrupt_get_nest
    completion.o(.text) refers to timer.o(.text) for rt_timer_control
    completion.o(.text) refers to scheduler.o(.text) for rt_schedule
    completion.o(.text) refers to completion.o(.constdata) for __FUNCTION__
    dataqueue.o(.text) refers to kservice.o(.text) for rt_assert_handler
    dataqueue.o(.text) refers to mem.o(.text) for rt_malloc
    dataqueue.o(.text) refers to thread.o(.text) for rt_thread_self
    dataqueue.o(.text) refers to context_rvds.o(.text) for rt_hw_interrupt_disable
    dataqueue.o(.text) refers to irq.o(.text) for rt_interrupt_get_nest
    dataqueue.o(.text) refers to timer.o(.text) for rt_timer_control
    dataqueue.o(.text) refers to scheduler.o(.text) for rt_schedule
    dataqueue.o(.text) refers to dataqueue.o(.constdata) for __FUNCTION__
    pipe.o(.text) refers to kservice.o(.text) for rt_assert_handler
    pipe.o(.text) refers to thread.o(.text) for rt_thread_resume
    pipe.o(.text) refers to scheduler.o(.text) for rt_schedule
    pipe.o(.text) refers to context_rvds.o(.text) for rt_hw_interrupt_disable
    pipe.o(.text) refers to ringbuffer.o(.text) for rt_ringbuffer_get
    pipe.o(.text) refers to irq.o(.text) for rt_interrupt_get_nest
    pipe.o(.text) refers to device.o(.text) for rt_device_register
    pipe.o(.text) refers to mem.o(.text) for rt_calloc
    pipe.o(.text) refers to pipe.o(.constdata) for __FUNCTION__
    portal.o(.text) refers to kservice.o(.text) for rt_assert_handler
    portal.o(.text) refers to device.o(.text) for rt_device_init
    portal.o(.text) refers to mem.o(.text) for rt_calloc
    portal.o(.text) refers to portal.o(.constdata) for __FUNCTION__
    ringbuffer.o(.text) refers to kservice.o(.text) for rt_assert_handler
    ringbuffer.o(.text) refers to memcpya.o(.text) for __aeabi_memcpy
    ringbuffer.o(.text) refers to ringbuffer.o(.constdata) for __FUNCTION__
    workqueue.o(.text) refers to kservice.o(.text) for rt_assert_handler
    workqueue.o(.text) refers to thread.o(.text) for rt_thread_self
    workqueue.o(.text) refers to scheduler.o(.text) for rt_schedule
    workqueue.o(.text) refers to context_rvds.o(.text) for rt_hw_interrupt_disable
    workqueue.o(.text) refers to mem.o(.text) for rt_malloc
    workqueue.o(.text) refers to workqueue.o(.constdata) for __FUNCTION__
    can.o(.text) refers to kservice.o(.text) for rt_assert_handler
    can.o(.text) refers to context_rvds.o(.text) for rt_hw_interrupt_disable
    can.o(.text) refers to completion.o(.text) for rt_completion_wait
    can.o(.text) refers to ipc.o(.text) for rt_mutex_take
    can.o(.text) refers to can.o(.constdata) for __FUNCTION__
    can.o(.text) refers to mem.o(.text) for rt_malloc
    can.o(.text) refers to timer.o(.text) for rt_timer_start
    can.o(.text) refers to device.o(.text) for rt_device_control
    can.o(.text) refers to can.o(.conststring) for .conststring
    can.o(.text) refers to can.o(.data) for ErrCode
    can.o(.data) refers to can.o(.conststring) for .conststring
    can.o(FSymTab) refers to can.o(.rodata.name) for __fsym___cmd_canstat_name
    can.o(FSymTab) refers to can.o(.text) for cmd_canstat
    shell.o(.text) refers to kservice.o(.text) for rt_assert_handler
    shell.o(.text) refers to ipc.o(.text) for rt_sem_release
    shell.o(.text) refers to device.o(.text) for rt_device_find
    shell.o(.text) refers to memseta.o(.text) for __aeabi_memclr4
    shell.o(.text) refers to cmd.o(.text) for list_prefix
    shell.o(.text) refers to finsh_parser.o(.text) for finsh_parser_run
    shell.o(.text) refers to finsh_error.o(.text) for finsh_errno
    shell.o(.text) refers to finsh_compiler.o(.text) for finsh_compiler_run
    shell.o(.text) refers to finsh_init.o(.text) for finsh_stack_bottom
    shell.o(.text) refers to finsh_vm.o(.text) for finsh_vm_run
    shell.o(.text) refers to memcpya.o(.text) for __aeabi_memcpy
    shell.o(.text) refers to strlen.o(.text) for strlen
    shell.o(.text) refers to shell.o(.data) for shell
    shell.o(.text) refers to shell.o(.constdata) for __FUNCTION__
    shell.o(.text) refers to mem.o(.text) for rt_malloc
    shell.o(.text) refers to thread.o(.text) for rt_thread_init
    shell.o(.text) refers to symbol.o(.data) for _syscall_table_begin
    shell.o(.text) refers to shell.o(.bss) for finsh_thread_stack
    shell.o(.rti_fn.3) refers to shell.o(.text) for finsh_system_init
    cmd.o(.text) refers to kservice.o(.text) for rt_kprintf
    cmd.o(.text) refers to scheduler.o(.text) for rt_enter_critical
    cmd.o(.text) refers to cmd.o(.conststring) for .conststring
    cmd.o(.text) refers to object.o(.data) for rt_object_container
    cmd.o(.text) refers to clock.o(.text) for rt_tick_get
    cmd.o(.text) refers to memcpya.o(.text) for __aeabi_memcpy4
    cmd.o(.text) refers to strncmp.o(.text) for strncmp
    cmd.o(.text) refers to strlen.o(.text) for strlen
    cmd.o(.text) refers to cmd.o(.constdata) for .constdata
    cmd.o(.text) refers to symbol.o(.data) for _syscall_table_begin
    cmd.o(.text) refers to finsh_vm.o(.data) for global_syscall_list
    cmd.o(.text) refers to finsh_var.o(.data) for global_sysvar_list
    cmd.o(.constdata) refers to cmd.o(.conststring) for .conststring
    cmd.o(FSymTab) refers to cmd.o(.rodata.name) for __fsym_hello_name
    cmd.o(FSymTab) refers to cmd.o(.text) for hello
    cmd.o(VSymTab) refers to cmd.o(.rodata.name) for __vsym_dummy_name
    cmd.o(VSymTab) refers to cmd.o(.data) for dummy
    finsh_compiler.o(.text) refers to finsh_compiler.o(.data) for finsh_compile_pc
    finsh_compiler.o(.text) refers to finsh_error.o(.text) for finsh_error_set
    finsh_compiler.o(.text) refers to memseta.o(.text) for __aeabi_memclr
    finsh_compiler.o(.text) refers to finsh_vm.o(.bss) for text_segment
    finsh_error.o(.text) refers to finsh_error.o(.data) for global_errno
    finsh_error.o(.data) refers to finsh_error.o(.conststring) for .conststring
    finsh_heap.o(.text) refers to memseta.o(.text) for __aeabi_memclr4
    finsh_heap.o(.text) refers to finsh_heap.o(.bss) for finsh_heap
    finsh_heap.o(.text) refers to finsh_heap.o(.data) for free_list
    finsh_heap.o(.text) refers to finsh_var.o(.bss) for global_variable
    finsh_init.o(.text) refers to finsh_parser.o(.text) for finsh_parser_init
    finsh_init.o(.text) refers to finsh_node.o(.text) for finsh_node_init
    finsh_init.o(.text) refers to finsh_var.o(.text) for finsh_var_init
    finsh_init.o(.text) refers to finsh_error.o(.text) for finsh_error_init
    finsh_init.o(.text) refers to finsh_heap.o(.text) for finsh_heap_init
    finsh_init.o(.text) refers to finsh_vm.o(.bss) for finsh_vm_stack
    finsh_node.o(.text) refers to memseta.o(.text) for __aeabi_memclr4
    finsh_node.o(.text) refers to finsh_var.o(.text) for finsh_var_lookup
    finsh_node.o(.text) refers to finsh_vm.o(.text) for finsh_syscall_lookup
    finsh_node.o(.text) refers to finsh_error.o(.text) for finsh_error_set
    finsh_node.o(.text) refers to strlen.o(.text) for strlen
    finsh_node.o(.text) refers to finsh_heap.o(.text) for finsh_heap_allocate
    finsh_node.o(.text) refers to strncpy.o(.text) for strncpy
    finsh_node.o(.text) refers to finsh_node.o(.bss) for global_node_table
    finsh_ops.o(.text) refers to finsh_vm.o(.data) for finsh_sp
    finsh_ops.o(.constdata) refers to finsh_ops.o(.text) for OP_no_op
    finsh_parser.o(.text) refers to finsh_node.o(.text) for finsh_node_allocate
    finsh_parser.o(.text) refers to finsh_error.o(.text) for finsh_error_set
    finsh_parser.o(.text) refers to finsh_token.o(.text) for finsh_token_token
    finsh_parser.o(.text) refers to strncpy.o(.text) for strncpy
    finsh_parser.o(.text) refers to finsh_var.o(.text) for finsh_var_insert
    finsh_parser.o(.text) refers to memseta.o(.text) for __aeabi_memclr4
    finsh_var.o(.text) refers to memseta.o(.text) for __aeabi_memclr4
    finsh_var.o(.text) refers to strncmp.o(.text) for strncmp
    finsh_var.o(.text) refers to strncpy.o(.text) for strncpy
    finsh_var.o(.text) refers to mem.o(.text) for rt_malloc
    finsh_var.o(.text) refers to kservice.o(.text) for rt_strdup
    finsh_var.o(.text) refers to strcmp.o(.text) for strcmp
    finsh_var.o(.text) refers to strlen.o(.text) for strlen
    finsh_var.o(.text) refers to finsh_var.o(.bss) for global_variable
    finsh_var.o(.text) refers to finsh_var.o(.data) for global_sysvar_list
    finsh_var.o(.text) refers to symbol.o(.data) for _sysvar_table_begin
    finsh_vm.o(.text) refers to mem.o(.text) for rt_malloc
    finsh_vm.o(.text) refers to kservice.o(.text) for rt_strdup
    finsh_vm.o(.text) refers to strcmp.o(.text) for strcmp
    finsh_vm.o(.text) refers to strlen.o(.text) for strlen
    finsh_vm.o(.text) refers to strncmp.o(.text) for strncmp
    finsh_vm.o(.text) refers to finsh_vm.o(.bss) for finsh_vm_stack
    finsh_vm.o(.text) refers to finsh_vm.o(.data) for finsh_sp
    finsh_vm.o(.text) refers to finsh_ops.o(.constdata) for op_table
    finsh_vm.o(.text) refers to symbol.o(.data) for _syscall_table_begin
    finsh_token.o(.text) refers to memseta.o(.text) for __aeabi_memclr4
    finsh_token.o(.text) refers to strlen.o(.text) for strlen
    finsh_token.o(.text) refers to finsh_error.o(.text) for finsh_error_set
    finsh_token.o(.text) refers to atoi.o(.text) for atoi
    finsh_token.o(.text) refers to strcmp.o(.text) for strcmp
    finsh_token.o(.text) refers to strncpy.o(.text) for strncpy
    finsh_token.o(.text) refers to finsh_token.o(.constdata) for finsh_name_table
    finsh_token.o(.constdata) refers to finsh_token.o(.conststring) for .conststring
    components.o(.text) refers to kservice.o(.text) for rt_kprintf
    components.o(.text) refers to components.o(.rti_fn.0.end) for __rt_init_rti_board_start
    components.o(.text) refers to components.o(.rti_fn.1.end) for __rt_init_rti_board_end
    components.o(.text) refers to components.o(.rti_fn.6.end) for __rt_init_rti_end
    components.o(.rti_fn.0) refers to components.o(.text) for rti_start
    components.o(.rti_fn.0.end) refers to components.o(.text) for rti_board_start
    components.o(.rti_fn.1.end) refers to components.o(.text) for rti_board_end
    components.o(.rti_fn.6.end) refers to components.o(.text) for rti_end
    led.o(.text) refers to stm32f10x_rcc.o(.text) for RCC_APB2PeriphClockCmd
    led.o(.text) refers to stm32f10x_gpio.o(.text) for GPIO_Init
    led.o(.text) refers to 74hc595.o(.data) for hc595
    led.o(.text) refers to led.o(.data) for led_inited
    led.o(FSymTab) refers to led.o(.rodata.name) for __fsym_set_led_name
    led.o(FSymTab) refers to led.o(.text) for set_led
    delay.o(.text) refers to thread.o(.text) for rt_thread_delay
    delay.o(.text) refers to system_stm32f10x.o(.data) for SystemCoreClock
    sys.o(.text) refers to mcu_gpio.o(.text) for pinRead
    sys.o(.text) refers to delay.o(.text) for delay_us
    crc.o(.text) refers to crc.o(.constdata) for aucCRCHi
    mcu_exit.o(.text) refers to misc.o(.text) for NVIC_Init
    mcu_exit.o(.text) refers to mcu_gpio.o(.text) for pinMode
    mcu_exit.o(.text) refers to stm32f10x_rcc.o(.text) for RCC_APB2PeriphClockCmd
    mcu_exit.o(.text) refers to stm32f10x_gpio.o(.text) for GPIO_EXTILineConfig
    mcu_exit.o(.text) refers to stm32f10x_exti.o(.text) for EXTI_Init
    mcu_exit.o(.text) refers to mcu_exit.o(.data) for irq
    mcu_exit.o(.text) refers to mcu_gpio.o(.data) for PE6
    mcu_gpio.o(.text) refers to stm32f10x_rcc.o(.text) for RCC_APB2PeriphClockCmd
    mcu_gpio.o(.text) refers to stm32f10x_gpio.o(.text) for GPIO_Init
    mcu_rtc.o(.text) refers to stm32f10x_rtc.o(.text) for RTC_GetCounter
    mcu_rtc.o(.text) refers to misc.o(.text) for NVIC_Init
    mcu_rtc.o(.text) refers to stm32f10x_bkp.o(.text) for BKP_WriteBackupRegister
    mcu_rtc.o(.text) refers to stm32f10x_rcc.o(.text) for RCC_APB1PeriphClockCmd
    mcu_rtc.o(.text) refers to stm32f10x_pwr.o(.text) for PWR_BackupAccessCmd
    mcu_rtc.o(.text) refers to finsh_rtc_1.o(.data) for rtc
    mcu_rtc.o(.text) refers to mcu_rtc.o(.data) for irq_Sec_Irq_handler
    mcu_softi2c.o(.text) refers to mcu_gpio.o(.text) for pinMode
    mcu_softi2c.o(.text) refers to delay.o(.text) for delay_us
    mcu_softi2c.o(.data) refers to mcu_softi2c.o(.text) for SoftI2c_Init
    mcu_softispi.o(.text) refers to mcu_gpio.o(.text) for pinMode
    mcu_softispi.o(.text) refers to delay.o(.text) for delay_us
    mcu_softispi.o(.data) refers to mcu_softispi.o(.text) for SoftSpi_init
    mcu_spi.o(.text) refers to stm32f10x_rcc.o(.text) for RCC_APB2PeriphClockCmd
    mcu_spi.o(.text) refers to mcu_gpio.o(.text) for pinMode
    mcu_spi.o(.text) refers to stm32f10x_spi.o(.text) for SPI_I2S_DeInit
    mcu_spi.o(.text) refers to mcu_gpio.o(.data) for PA5
    mcu_spi.o(.data) refers to mcu_spi.o(.text) for SPI_init
    mcu_wdg.o(.text) refers to dfltui.o(.text) for __aeabi_ui2d
    mcu_wdg.o(.text) refers to pow.o(i.pow) for pow
    mcu_wdg.o(.text) refers to dmul.o(.text) for __aeabi_dmul
    mcu_wdg.o(.text) refers to dflti.o(.text) for __aeabi_i2d
    mcu_wdg.o(.text) refers to ddiv.o(.text) for __aeabi_ddiv
    mcu_wdg.o(.text) refers to dfixui.o(.text) for __aeabi_d2uiz
    mcu_wdg.o(.text) refers to stm32f10x_iwdg.o(.text) for IWDG_WriteAccessCmd
    mcp3421.o(.text) refers to mcu_softi2c.o(.data) for SoftI2c
    mcp3421.o(.text) refers to mcp3421.o(.data) for lsb
    74hc165.o(.text) refers to mcu_gpio.o(.text) for pinMode
    74hc165.o(.text) refers to delay.o(.text) for delay_us
    74hc165.o(.text) refers to sys.o(.text) for shift_in
    74hc165.o(.text) refers to 74hc165.o(.data) for hc165
    74hc165.o(.data) refers to mcu_gpio.o(.data) for PA1
    74hc165.o(.data) refers to 74hc165.o(.text) for hc165_init
    74hc595.o(.text) refers to mcu_gpio.o(.text) for pinMode
    74hc595.o(.text) refers to sys.o(.text) for shift_out
    74hc595.o(.text) refers to delay.o(.text) for delay_us
    74hc595.o(.text) refers to 74hc595.o(.data) for hc595
    74hc595.o(.data) refers to mcu_gpio.o(.data) for PB13
    74hc595.o(.data) refers to 74hc595.o(.text) for hc595_init
    w25qxx.o(.text) refers to delay.o(.text) for delay_us
    w25qxx.o(.text) refers to mcu_spi.o(.data) for spi
    w25qxx.o(.text) refers to w25qxx.o(.data) for w25qxx
    w25qxx.o(.text) refers to w25qxx.o(.bss) for W25QXX_BUFFER
    w25qxx.o(.data) refers to w25qxx.o(.text) for w25qxx_init
    isl29125.o(.text) refers to mcu_gpio.o(.text) for pinMode
    isl29125.o(.text) refers to d2f.o(.text) for __aeabi_d2f
    isl29125.o(.text) refers to ffltui.o(.text) for __aeabi_ui2f
    isl29125.o(.text) refers to fmul.o(.text) for __aeabi_fmul
    isl29125.o(.text) refers to mcu_softi2c.o(.data) for SoftI2c
    ds18b20.o(.text) refers to mcu_gpio.o(.text) for pinMode
    ds18b20.o(.text) refers to delay.o(.text) for delay_us
    ds18b20.o(.text) refers to crc.o(.text) for crc8
    ds18b20.o(.text) refers to dflti.o(.text) for __aeabi_i2d
    ds18b20.o(.text) refers to dmul.o(.text) for __aeabi_dmul
    ds18b20.o(.text) refers to d2f.o(.text) for __aeabi_d2f
    l6480.o(.text) refers to mcu_gpio.o(.text) for pinReset
    l6480.o(.text) refers to finsh_l6480_1.o(.data) for L6480s
    l6480.o(.text) refers to mcu_gpio.o(.data) for PB12
    l6480.o(.text) refers to mcu_spi.o(.data) for spi
    calendar.o(.text) refers to calendar.o(.bss) for calendar
    calendar.o(.text) refers to finsh_rtc_1.o(.data) for rtc
    finsh_adc_1.o(.text) refers to mcp3421.o(.text) for MCP3421StartConvertion
    finsh_adc_1.o(.text) refers to delay.o(.text) for delay_ms
    finsh_adc_1.o(.text) refers to dfltui.o(.text) for __aeabi_ui2d
    finsh_adc_1.o(.text) refers to dmul.o(.text) for __aeabi_dmul
    finsh_adc_1.o(.text) refers to d2f.o(.text) for __aeabi_d2f
    finsh_adc_1.o(.text) refers to f2d.o(.text) for __aeabi_f2d
    finsh_adc_1.o(.text) refers to dadd.o(.text) for __aeabi_dsub
    finsh_adc_1.o(.text) refers to printfa.o(i.__0sprintf) for __2sprintf
    finsh_adc_1.o(.text) refers to kservice.o(.text) for rt_kprintf
    finsh_adc_1.o(.text) refers to finsh_adc_1.o(.data) for adc1
    finsh_adc_1.o(.text) refers to finsh_adc_1.o(.bss) for currentDat
    finsh_adc_1.o(.text) refers to mcu_softi2c.o(.data) for SoftI2c
    finsh_adc_1.o(.data) refers to mcu_gpio.o(.data) for PA0
    finsh_adc_1.o(FSymTab) refers to finsh_adc_1.o(.rodata.name) for __fsym_getUSBCurrent_name
    finsh_adc_1.o(FSymTab) refers to finsh_adc_1.o(.text) for getUSBCurrent
    finsh_eeprom.o(.text) refers to kservice.o(.text) for rt_kprintf
    finsh_eeprom.o(.text) refers to strlen.o(.text) for strlen
    finsh_eeprom.o(.text) refers to delay.o(.text) for delay_ms
    finsh_eeprom.o(.text) refers to memseta.o(.text) for __aeabi_memclr4
    finsh_eeprom.o(.text) refers to finsh_eeprom.o(.data) for at24lc04_Inited
    finsh_eeprom.o(.text) refers to mcu_softi2c.o(.data) for SoftI2c
    finsh_eeprom.o(.text) refers to at24cxx.o(.constdata) for C24LC04
    finsh_eeprom.o(.text) refers to at24cxx.o(.data) for at24cxx
    finsh_eeprom.o(.data) refers to mcu_gpio.o(.data) for PA0
    finsh_eeprom.o(FSymTab) refers to finsh_eeprom.o(.rodata.name) for __fsym_eeprom_init_name
    finsh_eeprom.o(FSymTab) refers to finsh_eeprom.o(.text) for eeprom_init
    finsh_flash_1.o(.text) refers to strlen.o(.text) for strlen
    finsh_flash_1.o(.text) refers to kservice.o(.text) for rt_kprintf
    finsh_flash_1.o(.text) refers to memseta.o(.text) for __aeabi_memclr4
    finsh_flash_1.o(.text) refers to finsh_flash_1.o(.data) for w25q32_Inited
    finsh_flash_1.o(.text) refers to w25qxx.o(.data) for w25qxx
    finsh_flash_1.o(.text) refers to mcu_spi.o(.data) for spi
    finsh_flash_1.o(.data) refers to mcu_gpio.o(.data) for PD7
    finsh_flash_1.o(FSymTab) refers to finsh_flash_1.o(.rodata.name) for __fsym_save_name
    finsh_flash_1.o(FSymTab) refers to finsh_flash_1.o(.text) for Flash_write
    finsh_l6480_1.o(.text) refers to mcu_gpio.o(.text) for pinMode
    finsh_l6480_1.o(.text) refers to l6480.o(.text) for L6480_Reset_And_Standby
    finsh_l6480_1.o(.text) refers to kservice.o(.text) for rt_kprintf
    finsh_l6480_1.o(.text) refers to mcu_gpio.o(.data) for PB12
    finsh_l6480_1.o(.text) refers to mcu_spi.o(.data) for spi
    finsh_l6480_1.o(.text) refers to finsh_l6480_1.o(.data) for L6480s
    finsh_l6480_1.o(.text) refers to finsh_l6480_1.o(.bss) for MotorConfig
    finsh_l6480_1.o(.data) refers to mcu_gpio.o(.data) for PB12
    finsh_l6480_1.o(FSymTab) refers to finsh_l6480_1.o(.rodata.name) for __fsym_init_name
    finsh_l6480_1.o(FSymTab) refers to finsh_l6480_1.o(.text) for L6480s_init
    finsh_logic.o(.text) refers to mcu_gpio.o(.text) for pinMode
    finsh_logic.o(.text) refers to kservice.o(.text) for rt_kprintf
    finsh_logic.o(.text) refers to finsh_logic.o(.data) for input_Inited
    finsh_logic.o(.text) refers to mcu_gpio.o(.data) for PE0
    finsh_logic.o(.text) refers to 74hc165.o(.data) for hc165
    finsh_logic.o(.text) refers to finsh_logic.o(.bss) for data_in
    finsh_logic.o(.text) refers to 74hc595.o(.data) for hc595
    finsh_logic.o(.text) refers to strlen.o(.text) for strlen
    finsh_logic.o(FSymTab) refers to finsh_logic.o(.rodata.name) for __fsym_readPin_name
    finsh_logic.o(FSymTab) refers to finsh_logic.o(.text) for readPin
    finsh_rgb_sensor_1.o(.text) refers to kservice.o(.text) for rt_kprintf
    finsh_rgb_sensor_1.o(.text) refers to isl29125.o(.text) for isl29125_init
    finsh_rgb_sensor_1.o(.text) refers to delay.o(.text) for delay_ms
    finsh_rgb_sensor_1.o(.text) refers to finsh_rgb_sensor_1.o(.bss) for data
    finsh_rgb_sensor_1.o(.text) refers to finsh_rgb_sensor_1.o(.data) for rgbSensor1
    finsh_rgb_sensor_1.o(.data) refers to mcu_gpio.o(.data) for PE15
    finsh_rgb_sensor_1.o(FSymTab) refers to finsh_rgb_sensor_1.o(.rodata.name) for __fsym_rgbSensor_init_name
    finsh_rgb_sensor_1.o(FSymTab) refers to finsh_rgb_sensor_1.o(.text) for rgbSensor_init
    finsh_rtc_1.o(.text) refers to kservice.o(.text) for rt_kprintf
    finsh_rtc_1.o(.text) refers to mcu_rtc.o(.text) for sec_event
    finsh_rtc_1.o(.text) refers to calendar.o(.text) for Calendar_sec_process
    finsh_rtc_1.o(.text) refers to finsh_rtc_1.o(.data) for rtc
    finsh_rtc_1.o(.text) refers to calendar.o(.bss) for calendar
    finsh_rtc_1.o(.data) refers to mcu_rtc.o(.text) for Rtc_init
    finsh_rtc_1.o(.data) refers to finsh_rtc_1.o(.text) for rtc_sec_sendMessage1
    finsh_rtc_1.o(FSymTab) refers to finsh_rtc_1.o(.rodata.name) for __fsym_rtc_basic_name
    finsh_rtc_1.o(FSymTab) refers to finsh_rtc_1.o(.text) for rtc_basic
    finsh_test.o(.text) refers to kservice.o(.text) for rt_kprintf
    finsh_test.o(.text) refers to mcu_gpio.o(.text) for pinToggle
    finsh_test.o(.text) refers to mcu_exit.o(.text) for exit_init
    finsh_test.o(.text) refers to mcu_gpio.o(.data) for PE2
    finsh_test.o(.text) refers to finsh_test.o(.data) for SensorIt1
    finsh_test.o(.data) refers to mcu_gpio.o(.data) for PE8
    finsh_test.o(.data) refers to finsh_test.o(.text) for sendMessage
    finsh_test.o(FSymTab) refers to finsh_test.o(.rodata.name) for __fsym_exit_start_name
    finsh_test.o(FSymTab) refers to finsh_test.o(.text) for exit_start
    finsh_temp_sensor.o(.text) refers to ds18b20.o(.text) for Ds18b20_get_temp
    finsh_temp_sensor.o(.text) refers to f2d.o(.text) for __aeabi_f2d
    finsh_temp_sensor.o(.text) refers to printfa.o(i.__0sprintf) for __2sprintf
    finsh_temp_sensor.o(.text) refers to kservice.o(.text) for rt_kprintf
    finsh_temp_sensor.o(.text) refers to mcu_gpio.o(.data) for PB3
    finsh_temp_sensor.o(FSymTab) refers to finsh_temp_sensor.o(.rodata.name) for __fsym_get_temp_name
    finsh_temp_sensor.o(FSymTab) refers to finsh_temp_sensor.o(.text) for get_temp
    finsh_app.o(.text) refers to strcmp.o(.text) for strcmp
    textlcd.o(.text) refers to delay.o(.text) for delay_us
    textlcd.o(.text) refers to printfa.o(i.__0vsnprintf) for vsnprintf
    textlcd.o(.text) refers to printfa.o(i.__0vsprintf) for vsprintf
    textlcd.o(.text) refers to textlcd.o(.data) for _type
    textlcd.o(.data) refers to textlcd.o(.text) for init
    dido.o(.text) refers to mcu_gpio.o(.text) for pinMode
    dido.o(.text) refers to strlen.o(.text) for strlen
    dido.o(.text) refers to mcu_gpio.o(.data) for PE0
    dido.o(.text) refers to 74hc165.o(.data) for hc165
    dido.o(.text) refers to dido.o(.data) for Int
    dido.o(.text) refers to 74hc595.o(.data) for hc595
    dido.o(.data) refers to dido.o(.text) for input_init
    at24cxx.o(.text) refers to delay.o(.text) for delay_ms
    at24cxx.o(.text) refers to mcu_softi2c.o(.data) for SoftI2c
    at24cxx.o(.text) refers to at24cxx.o(.data) for dataTemp_EE
    at24cxx.o(.data) refers to at24cxx.o(.text) for AT24CXX_Init
    pow.o(i.__softfp_pow) refers (Special) to iusefp.o(.text) for __I$use$fp
    pow.o(i.__softfp_pow) refers to pow.o(i.pow) for pow
    pow.o(i.pow) refers (Special) to iusefp.o(.text) for __I$use$fp
    pow.o(i.pow) refers to dunder.o(i.__mathlib_dbl_infnan2) for __mathlib_dbl_infnan2
    pow.o(i.pow) refers to errno.o(i.__set_errno) for __set_errno
    pow.o(i.pow) refers to dunder.o(i.__mathlib_dbl_divzero) for __mathlib_dbl_divzero
    pow.o(i.pow) refers to ddiv.o(.text) for __aeabi_ddiv
    pow.o(i.pow) refers to sqrt.o(i.sqrt) for sqrt
    pow.o(i.pow) refers to dmul.o(.text) for __aeabi_dmul
    pow.o(i.pow) refers to dflti.o(.text) for __aeabi_i2d
    pow.o(i.pow) refers to dunder.o(i.__mathlib_dbl_invalid) for __mathlib_dbl_invalid
    pow.o(i.pow) refers to dunder.o(i.__mathlib_dbl_overflow) for __mathlib_dbl_overflow
    pow.o(i.pow) refers to dunder.o(i.__mathlib_dbl_underflow) for __mathlib_dbl_underflow
    pow.o(i.pow) refers to dadd.o(.text) for __aeabi_dsub
    pow.o(i.pow) refers to dscalb.o(.text) for __ARM_scalbn
    pow.o(i.pow) refers to qnan.o(.constdata) for __mathlib_zero
    pow.o(i.pow) refers to poly.o(i.__kernel_poly) for __kernel_poly
    pow.o(i.pow) refers to cdrcmple.o(.text) for __aeabi_cdrcmple
    pow.o(i.pow) refers to pow.o(.constdata) for .constdata
    pow.o(i.pow) refers to fpclassify.o(i.__ARM_fpclassify) for __ARM_fpclassify
    pow.o(.constdata) refers (Special) to iusefp.o(.text) for __I$use$fp
    pow_x.o(i.____softfp_pow$lsc) refers (Special) to iusefp.o(.text) for __I$use$fp
    pow_x.o(i.____softfp_pow$lsc) refers to pow_x.o(i.__pow$lsc) for __pow$lsc
    pow_x.o(i.__pow$lsc) refers (Special) to iusefp.o(.text) for __I$use$fp
    pow_x.o(i.__pow$lsc) refers to dunder.o(i.__mathlib_dbl_infnan2) for __mathlib_dbl_infnan2
    pow_x.o(i.__pow$lsc) refers to errno.o(i.__set_errno) for __set_errno
    pow_x.o(i.__pow$lsc) refers to ddiv.o(.text) for __aeabi_ddiv
    pow_x.o(i.__pow$lsc) refers to sqrt.o(i.sqrt) for sqrt
    pow_x.o(i.__pow$lsc) refers to dmul.o(.text) for __aeabi_dmul
    pow_x.o(i.__pow$lsc) refers to dflti.o(.text) for __aeabi_i2d
    pow_x.o(i.__pow$lsc) refers to dadd.o(.text) for __aeabi_dsub
    pow_x.o(i.__pow$lsc) refers to dscalb.o(.text) for __ARM_scalbn
    pow_x.o(i.__pow$lsc) refers to qnan.o(.constdata) for __mathlib_zero
    pow_x.o(i.__pow$lsc) refers to poly.o(i.__kernel_poly) for __kernel_poly
    pow_x.o(i.__pow$lsc) refers to cdrcmple.o(.text) for __aeabi_cdrcmple
    pow_x.o(i.__pow$lsc) refers to pow_x.o(.constdata) for .constdata
    pow_x.o(.constdata) refers (Special) to iusefp.o(.text) for __I$use$fp
    entry.o(.ARM.Collect$$$$00000000) refers (Special) to entry10a.o(.ARM.Collect$$$$0000000D) for __rt_final_cpp
    entry.o(.ARM.Collect$$$$00000000) refers (Special) to entry11a.o(.ARM.Collect$$$$0000000F) for __rt_final_exit
    entry.o(.ARM.Collect$$$$00000000) refers (Special) to entry7b.o(.ARM.Collect$$$$00000008) for _main_clock
    entry.o(.ARM.Collect$$$$00000000) refers (Special) to entry8b.o(.ARM.Collect$$$$0000000A) for _main_cpp_init
    entry.o(.ARM.Collect$$$$00000000) refers (Special) to entry9a.o(.ARM.Collect$$$$0000000B) for _main_init
    entry.o(.ARM.Collect$$$$00000000) refers (Special) to entry5.o(.ARM.Collect$$$$00000004) for _main_scatterload
    entry.o(.ARM.Collect$$$$00000000) refers (Special) to entry2.o(.ARM.Collect$$$$00000001) for _main_stk
    printfb.o(i.__0fprintf$bare) refers to printfb.o(i._printf_core) for _printf_core
    printfb.o(i.__0fprintf$bare) refers to fputc.o(i.fputc) for fputc
    printfb.o(i.__0printf$bare) refers to printfb.o(i._printf_core) for _printf_core
    printfb.o(i.__0printf$bare) refers to fputc.o(i.fputc) for fputc
    printfb.o(i.__0printf$bare) refers to stdout.o(.data) for __stdout
    printfb.o(i.__0snprintf$bare) refers to printfb.o(i._printf_core) for _printf_core
    printfb.o(i.__0snprintf$bare) refers to printfb.o(i._snputc) for _snputc
    printfb.o(i.__0sprintf$bare) refers to printfb.o(i._printf_core) for _printf_core
    printfb.o(i.__0sprintf$bare) refers to printfb.o(i._sputc) for _sputc
    printfb.o(i.__0vfprintf$bare) refers to printfb.o(i._printf_core) for _printf_core
    printfb.o(i.__0vfprintf$bare) refers to fputc.o(i.fputc) for fputc
    printfb.o(i.__0vprintf$bare) refers to printfb.o(i._printf_core) for _printf_core
    printfb.o(i.__0vprintf$bare) refers to fputc.o(i.fputc) for fputc
    printfb.o(i.__0vprintf$bare) refers to stdout.o(.data) for __stdout
    printfb.o(i.__0vsnprintf$bare) refers to printfb.o(i._printf_core) for _printf_core
    printfb.o(i.__0vsnprintf$bare) refers to printfb.o(i._snputc) for _snputc
    printfb.o(i.__0vsprintf$bare) refers to printfb.o(i._printf_core) for _printf_core
    printfb.o(i.__0vsprintf$bare) refers to printfb.o(i._sputc) for _sputc
    printf0.o(i.__0fprintf$0) refers to printf0.o(i._printf_core) for _printf_core
    printf0.o(i.__0fprintf$0) refers to fputc.o(i.fputc) for fputc
    printf0.o(i.__0printf$0) refers to printf0.o(i._printf_core) for _printf_core
    printf0.o(i.__0printf$0) refers to fputc.o(i.fputc) for fputc
    printf0.o(i.__0printf$0) refers to stdout.o(.data) for __stdout
    printf0.o(i.__0snprintf$0) refers to printf0.o(i._printf_core) for _printf_core
    printf0.o(i.__0snprintf$0) refers to printf0.o(i._snputc) for _snputc
    printf0.o(i.__0sprintf$0) refers to printf0.o(i._printf_core) for _printf_core
    printf0.o(i.__0sprintf$0) refers to printf0.o(i._sputc) for _sputc
    printf0.o(i.__0vfprintf$0) refers to printf0.o(i._printf_core) for _printf_core
    printf0.o(i.__0vfprintf$0) refers to fputc.o(i.fputc) for fputc
    printf0.o(i.__0vprintf$0) refers to printf0.o(i._printf_core) for _printf_core
    printf0.o(i.__0vprintf$0) refers to fputc.o(i.fputc) for fputc
    printf0.o(i.__0vprintf$0) refers to stdout.o(.data) for __stdout
    printf0.o(i.__0vsnprintf$0) refers to printf0.o(i._printf_core) for _printf_core
    printf0.o(i.__0vsnprintf$0) refers to printf0.o(i._snputc) for _snputc
    printf0.o(i.__0vsprintf$0) refers to printf0.o(i._printf_core) for _printf_core
    printf0.o(i.__0vsprintf$0) refers to printf0.o(i._sputc) for _sputc
    printf1.o(i.__0fprintf$1) refers to printf1.o(i._printf_core) for _printf_core
    printf1.o(i.__0fprintf$1) refers to fputc.o(i.fputc) for fputc
    printf1.o(i.__0printf$1) refers to printf1.o(i._printf_core) for _printf_core
    printf1.o(i.__0printf$1) refers to fputc.o(i.fputc) for fputc
    printf1.o(i.__0printf$1) refers to stdout.o(.data) for __stdout
    printf1.o(i.__0snprintf$1) refers to printf1.o(i._printf_core) for _printf_core
    printf1.o(i.__0snprintf$1) refers to printf1.o(i._snputc) for _snputc
    printf1.o(i.__0sprintf$1) refers to printf1.o(i._printf_core) for _printf_core
    printf1.o(i.__0sprintf$1) refers to printf1.o(i._sputc) for _sputc
    printf1.o(i.__0vfprintf$1) refers to printf1.o(i._printf_core) for _printf_core
    printf1.o(i.__0vfprintf$1) refers to fputc.o(i.fputc) for fputc
    printf1.o(i.__0vprintf$1) refers to printf1.o(i._printf_core) for _printf_core
    printf1.o(i.__0vprintf$1) refers to fputc.o(i.fputc) for fputc
    printf1.o(i.__0vprintf$1) refers to stdout.o(.data) for __stdout
    printf1.o(i.__0vsnprintf$1) refers to printf1.o(i._printf_core) for _printf_core
    printf1.o(i.__0vsnprintf$1) refers to printf1.o(i._snputc) for _snputc
    printf1.o(i.__0vsprintf$1) refers to printf1.o(i._printf_core) for _printf_core
    printf1.o(i.__0vsprintf$1) refers to printf1.o(i._sputc) for _sputc
    printf1.o(i._printf_core) refers to uidiv.o(.text) for __aeabi_uidivmod
    printf2.o(i.__0fprintf$2) refers to printf2.o(i._printf_core) for _printf_core
    printf2.o(i.__0fprintf$2) refers to fputc.o(i.fputc) for fputc
    printf2.o(i.__0printf$2) refers to printf2.o(i._printf_core) for _printf_core
    printf2.o(i.__0printf$2) refers to fputc.o(i.fputc) for fputc
    printf2.o(i.__0printf$2) refers to stdout.o(.data) for __stdout
    printf2.o(i.__0snprintf$2) refers to printf2.o(i._printf_core) for _printf_core
    printf2.o(i.__0snprintf$2) refers to printf2.o(i._snputc) for _snputc
    printf2.o(i.__0sprintf$2) refers to printf2.o(i._printf_core) for _printf_core
    printf2.o(i.__0sprintf$2) refers to printf2.o(i._sputc) for _sputc
    printf2.o(i.__0vfprintf$2) refers to printf2.o(i._printf_core) for _printf_core
    printf2.o(i.__0vfprintf$2) refers to fputc.o(i.fputc) for fputc
    printf2.o(i.__0vprintf$2) refers to printf2.o(i._printf_core) for _printf_core
    printf2.o(i.__0vprintf$2) refers to fputc.o(i.fputc) for fputc
    printf2.o(i.__0vprintf$2) refers to stdout.o(.data) for __stdout
    printf2.o(i.__0vsnprintf$2) refers to printf2.o(i._printf_core) for _printf_core
    printf2.o(i.__0vsnprintf$2) refers to printf2.o(i._snputc) for _snputc
    printf2.o(i.__0vsprintf$2) refers to printf2.o(i._printf_core) for _printf_core
    printf2.o(i.__0vsprintf$2) refers to printf2.o(i._sputc) for _sputc
    printf3.o(i.__0fprintf$3) refers to printf3.o(i._printf_core) for _printf_core
    printf3.o(i.__0fprintf$3) refers to fputc.o(i.fputc) for fputc
    printf3.o(i.__0printf$3) refers to printf3.o(i._printf_core) for _printf_core
    printf3.o(i.__0printf$3) refers to fputc.o(i.fputc) for fputc
    printf3.o(i.__0printf$3) refers to stdout.o(.data) for __stdout
    printf3.o(i.__0snprintf$3) refers to printf3.o(i._printf_core) for _printf_core
    printf3.o(i.__0snprintf$3) refers to printf3.o(i._snputc) for _snputc
    printf3.o(i.__0sprintf$3) refers to printf3.o(i._printf_core) for _printf_core
    printf3.o(i.__0sprintf$3) refers to printf3.o(i._sputc) for _sputc
    printf3.o(i.__0vfprintf$3) refers to printf3.o(i._printf_core) for _printf_core
    printf3.o(i.__0vfprintf$3) refers to fputc.o(i.fputc) for fputc
    printf3.o(i.__0vprintf$3) refers to printf3.o(i._printf_core) for _printf_core
    printf3.o(i.__0vprintf$3) refers to fputc.o(i.fputc) for fputc
    printf3.o(i.__0vprintf$3) refers to stdout.o(.data) for __stdout
    printf3.o(i.__0vsnprintf$3) refers to printf3.o(i._printf_core) for _printf_core
    printf3.o(i.__0vsnprintf$3) refers to printf3.o(i._snputc) for _snputc
    printf3.o(i.__0vsprintf$3) refers to printf3.o(i._printf_core) for _printf_core
    printf3.o(i.__0vsprintf$3) refers to printf3.o(i._sputc) for _sputc
    printf3.o(i._printf_core) refers to uidiv.o(.text) for __aeabi_uidivmod
    printf4.o(i.__0fprintf$4) refers to printf4.o(i._printf_core) for _printf_core
    printf4.o(i.__0fprintf$4) refers to fputc.o(i.fputc) for fputc
    printf4.o(i.__0printf$4) refers to printf4.o(i._printf_core) for _printf_core
    printf4.o(i.__0printf$4) refers to fputc.o(i.fputc) for fputc
    printf4.o(i.__0printf$4) refers to stdout.o(.data) for __stdout
    printf4.o(i.__0snprintf$4) refers to printf4.o(i._printf_core) for _printf_core
    printf4.o(i.__0snprintf$4) refers to printf4.o(i._snputc) for _snputc
    printf4.o(i.__0sprintf$4) refers to printf4.o(i._printf_core) for _printf_core
    printf4.o(i.__0sprintf$4) refers to printf4.o(i._sputc) for _sputc
    printf4.o(i.__0vfprintf$4) refers to printf4.o(i._printf_core) for _printf_core
    printf4.o(i.__0vfprintf$4) refers to fputc.o(i.fputc) for fputc
    printf4.o(i.__0vprintf$4) refers to printf4.o(i._printf_core) for _printf_core
    printf4.o(i.__0vprintf$4) refers to fputc.o(i.fputc) for fputc
    printf4.o(i.__0vprintf$4) refers to stdout.o(.data) for __stdout
    printf4.o(i.__0vsnprintf$4) refers to printf4.o(i._printf_core) for _printf_core
    printf4.o(i.__0vsnprintf$4) refers to printf4.o(i._snputc) for _snputc
    printf4.o(i.__0vsprintf$4) refers to printf4.o(i._printf_core) for _printf_core
    printf4.o(i.__0vsprintf$4) refers to printf4.o(i._sputc) for _sputc
    printf4.o(i._printf_core) refers to uldiv.o(.text) for __aeabi_uldivmod
    printf5.o(i.__0fprintf$5) refers to printf5.o(i._printf_core) for _printf_core
    printf5.o(i.__0fprintf$5) refers to fputc.o(i.fputc) for fputc
    printf5.o(i.__0printf$5) refers to printf5.o(i._printf_core) for _printf_core
    printf5.o(i.__0printf$5) refers to fputc.o(i.fputc) for fputc
    printf5.o(i.__0printf$5) refers to stdout.o(.data) for __stdout
    printf5.o(i.__0snprintf$5) refers to printf5.o(i._printf_core) for _printf_core
    printf5.o(i.__0snprintf$5) refers to printf5.o(i._snputc) for _snputc
    printf5.o(i.__0sprintf$5) refers to printf5.o(i._printf_core) for _printf_core
    printf5.o(i.__0sprintf$5) refers to printf5.o(i._sputc) for _sputc
    printf5.o(i.__0vfprintf$5) refers to printf5.o(i._printf_core) for _printf_core
    printf5.o(i.__0vfprintf$5) refers to fputc.o(i.fputc) for fputc
    printf5.o(i.__0vprintf$5) refers to printf5.o(i._printf_core) for _printf_core
    printf5.o(i.__0vprintf$5) refers to fputc.o(i.fputc) for fputc
    printf5.o(i.__0vprintf$5) refers to stdout.o(.data) for __stdout
    printf5.o(i.__0vsnprintf$5) refers to printf5.o(i._printf_core) for _printf_core
    printf5.o(i.__0vsnprintf$5) refers to printf5.o(i._snputc) for _snputc
    printf5.o(i.__0vsprintf$5) refers to printf5.o(i._printf_core) for _printf_core
    printf5.o(i.__0vsprintf$5) refers to printf5.o(i._sputc) for _sputc
    printf5.o(i._printf_core) refers to uldiv.o(.text) for __aeabi_uldivmod
    printf6.o(i.__0fprintf$6) refers to printf6.o(i._printf_core) for _printf_core
    printf6.o(i.__0fprintf$6) refers to fputc.o(i.fputc) for fputc
    printf6.o(i.__0printf$6) refers to printf6.o(i._printf_core) for _printf_core
    printf6.o(i.__0printf$6) refers to fputc.o(i.fputc) for fputc
    printf6.o(i.__0printf$6) refers to stdout.o(.data) for __stdout
    printf6.o(i.__0snprintf$6) refers to printf6.o(i._printf_core) for _printf_core
    printf6.o(i.__0snprintf$6) refers to printf6.o(i._snputc) for _snputc
    printf6.o(i.__0sprintf$6) refers to printf6.o(i._printf_core) for _printf_core
    printf6.o(i.__0sprintf$6) refers to printf6.o(i._sputc) for _sputc
    printf6.o(i.__0vfprintf$6) refers to printf6.o(i._printf_core) for _printf_core
    printf6.o(i.__0vfprintf$6) refers to fputc.o(i.fputc) for fputc
    printf6.o(i.__0vprintf$6) refers to printf6.o(i._printf_core) for _printf_core
    printf6.o(i.__0vprintf$6) refers to fputc.o(i.fputc) for fputc
    printf6.o(i.__0vprintf$6) refers to stdout.o(.data) for __stdout
    printf6.o(i.__0vsnprintf$6) refers to printf6.o(i._printf_core) for _printf_core
    printf6.o(i.__0vsnprintf$6) refers to printf6.o(i._snputc) for _snputc
    printf6.o(i.__0vsprintf$6) refers to printf6.o(i._printf_core) for _printf_core
    printf6.o(i.__0vsprintf$6) refers to printf6.o(i._sputc) for _sputc
    printf6.o(i._printf_core) refers to printf6.o(i._printf_pre_padding) for _printf_pre_padding
    printf6.o(i._printf_core) refers to uidiv.o(.text) for __aeabi_uidivmod
    printf6.o(i._printf_core) refers to printf6.o(i._printf_post_padding) for _printf_post_padding
    printf7.o(i.__0fprintf$7) refers to printf7.o(i._printf_core) for _printf_core
    printf7.o(i.__0fprintf$7) refers to fputc.o(i.fputc) for fputc
    printf7.o(i.__0printf$7) refers to printf7.o(i._printf_core) for _printf_core
    printf7.o(i.__0printf$7) refers to fputc.o(i.fputc) for fputc
    printf7.o(i.__0printf$7) refers to stdout.o(.data) for __stdout
    printf7.o(i.__0snprintf$7) refers to printf7.o(i._printf_core) for _printf_core
    printf7.o(i.__0snprintf$7) refers to printf7.o(i._snputc) for _snputc
    printf7.o(i.__0sprintf$7) refers to printf7.o(i._printf_core) for _printf_core
    printf7.o(i.__0sprintf$7) refers to printf7.o(i._sputc) for _sputc
    printf7.o(i.__0vfprintf$7) refers to printf7.o(i._printf_core) for _printf_core
    printf7.o(i.__0vfprintf$7) refers to fputc.o(i.fputc) for fputc
    printf7.o(i.__0vprintf$7) refers to printf7.o(i._printf_core) for _printf_core
    printf7.o(i.__0vprintf$7) refers to fputc.o(i.fputc) for fputc
    printf7.o(i.__0vprintf$7) refers to stdout.o(.data) for __stdout
    printf7.o(i.__0vsnprintf$7) refers to printf7.o(i._printf_core) for _printf_core
    printf7.o(i.__0vsnprintf$7) refers to printf7.o(i._snputc) for _snputc
    printf7.o(i.__0vsprintf$7) refers to printf7.o(i._printf_core) for _printf_core
    printf7.o(i.__0vsprintf$7) refers to printf7.o(i._sputc) for _sputc
    printf7.o(i._printf_core) refers to printf7.o(i._printf_pre_padding) for _printf_pre_padding
    printf7.o(i._printf_core) refers to uldiv.o(.text) for __aeabi_uldivmod
    printf7.o(i._printf_core) refers to printf7.o(i._printf_post_padding) for _printf_post_padding
    printf8.o(i.__0fprintf$8) refers to printf8.o(i._printf_core) for _printf_core
    printf8.o(i.__0fprintf$8) refers to fputc.o(i.fputc) for fputc
    printf8.o(i.__0printf$8) refers to printf8.o(i._printf_core) for _printf_core
    printf8.o(i.__0printf$8) refers to fputc.o(i.fputc) for fputc
    printf8.o(i.__0printf$8) refers to stdout.o(.data) for __stdout
    printf8.o(i.__0snprintf$8) refers to printf8.o(i._printf_core) for _printf_core
    printf8.o(i.__0snprintf$8) refers to printf8.o(i._snputc) for _snputc
    printf8.o(i.__0sprintf$8) refers to printf8.o(i._printf_core) for _printf_core
    printf8.o(i.__0sprintf$8) refers to printf8.o(i._sputc) for _sputc
    printf8.o(i.__0vfprintf$8) refers to printf8.o(i._printf_core) for _printf_core
    printf8.o(i.__0vfprintf$8) refers to fputc.o(i.fputc) for fputc
    printf8.o(i.__0vprintf$8) refers to printf8.o(i._printf_core) for _printf_core
    printf8.o(i.__0vprintf$8) refers to fputc.o(i.fputc) for fputc
    printf8.o(i.__0vprintf$8) refers to stdout.o(.data) for __stdout
    printf8.o(i.__0vsnprintf$8) refers to printf8.o(i._printf_core) for _printf_core
    printf8.o(i.__0vsnprintf$8) refers to printf8.o(i._snputc) for _snputc
    printf8.o(i.__0vsprintf$8) refers to printf8.o(i._printf_core) for _printf_core
    printf8.o(i.__0vsprintf$8) refers to printf8.o(i._sputc) for _sputc
    printf8.o(i._printf_core) refers to printf8.o(i._printf_pre_padding) for _printf_pre_padding
    printf8.o(i._printf_core) refers to uldiv.o(.text) for __aeabi_uldivmod
    printf8.o(i._printf_core) refers to printf8.o(i._printf_post_padding) for _printf_post_padding
    printfa.o(i.__0fprintf) refers (Special) to iusefp.o(.text) for __I$use$fp
    printfa.o(i.__0fprintf) refers to printfa.o(i._printf_core) for _printf_core
    printfa.o(i.__0fprintf) refers to fputc.o(i.fputc) for fputc
    printfa.o(i.__0printf) refers (Special) to iusefp.o(.text) for __I$use$fp
    printfa.o(i.__0printf) refers to printfa.o(i._printf_core) for _printf_core
    printfa.o(i.__0printf) refers to fputc.o(i.fputc) for fputc
    printfa.o(i.__0printf) refers to stdout.o(.data) for __stdout
    printfa.o(i.__0snprintf) refers (Special) to iusefp.o(.text) for __I$use$fp
    printfa.o(i.__0snprintf) refers to printfa.o(i._printf_core) for _printf_core
    printfa.o(i.__0snprintf) refers to printfa.o(i._snputc) for _snputc
    printfa.o(i.__0sprintf) refers (Special) to iusefp.o(.text) for __I$use$fp
    printfa.o(i.__0sprintf) refers to printfa.o(i._printf_core) for _printf_core
    printfa.o(i.__0sprintf) refers to printfa.o(i._sputc) for _sputc
    printfa.o(i.__0vfprintf) refers (Special) to iusefp.o(.text) for __I$use$fp
    printfa.o(i.__0vfprintf) refers to printfa.o(i._printf_core) for _printf_core
    printfa.o(i.__0vfprintf) refers to fputc.o(i.fputc) for fputc
    printfa.o(i.__0vprintf) refers (Special) to iusefp.o(.text) for __I$use$fp
    printfa.o(i.__0vprintf) refers to printfa.o(i._printf_core) for _printf_core
    printfa.o(i.__0vprintf) refers to fputc.o(i.fputc) for fputc
    printfa.o(i.__0vprintf) refers to stdout.o(.data) for __stdout
    printfa.o(i.__0vsnprintf) refers (Special) to iusefp.o(.text) for __I$use$fp
    printfa.o(i.__0vsnprintf) refers to printfa.o(i._printf_core) for _printf_core
    printfa.o(i.__0vsnprintf) refers to printfa.o(i._snputc) for _snputc
    printfa.o(i.__0vsprintf) refers (Special) to iusefp.o(.text) for __I$use$fp
    printfa.o(i.__0vsprintf) refers to printfa.o(i._printf_core) for _printf_core
    printfa.o(i.__0vsprintf) refers to printfa.o(i._sputc) for _sputc
    printfa.o(i._fp_digits) refers (Special) to iusefp.o(.text) for __I$use$fp
    printfa.o(i._fp_digits) refers to dmul.o(.text) for __aeabi_dmul
    printfa.o(i._fp_digits) refers to ddiv.o(.text) for __aeabi_ddiv
    printfa.o(i._fp_digits) refers to cdrcmple.o(.text) for __aeabi_cdrcmple
    printfa.o(i._fp_digits) refers to dadd.o(.text) for __aeabi_dadd
    printfa.o(i._fp_digits) refers to dfixul.o(.text) for __aeabi_d2ulz
    printfa.o(i._fp_digits) refers to uldiv.o(.text) for __aeabi_uldivmod
    printfa.o(i._printf_core) refers (Special) to iusefp.o(.text) for __I$use$fp
    printfa.o(i._printf_core) refers to printfa.o(i._printf_pre_padding) for _printf_pre_padding
    printfa.o(i._printf_core) refers to uldiv.o(.text) for __aeabi_uldivmod
    printfa.o(i._printf_core) refers to printfa.o(i._printf_post_padding) for _printf_post_padding
    printfa.o(i._printf_core) refers to printfa.o(i._fp_digits) for _fp_digits
    printfa.o(i._printf_core) refers to uidiv.o(.text) for __aeabi_uidivmod
    printfa.o(i._printf_post_padding) refers (Special) to iusefp.o(.text) for __I$use$fp
    printfa.o(i._printf_pre_padding) refers (Special) to iusefp.o(.text) for __I$use$fp
    printfa.o(i._snputc) refers (Special) to iusefp.o(.text) for __I$use$fp
    printfa.o(i._sputc) refers (Special) to iusefp.o(.text) for __I$use$fp
    atoi.o(.text) refers to errno.o(i.__aeabi_errno_addr) for __aeabi_errno_addr
    atoi.o(.text) refers to strtol.o(.text) for strtol
    fmul.o(.text) refers (Special) to iusefp.o(.text) for __I$use$fp
    dadd.o(.text) refers (Special) to iusefp.o(.text) for __I$use$fp
    dadd.o(.text) refers to llshl.o(.text) for __aeabi_llsl
    dadd.o(.text) refers to llsshr.o(.text) for __aeabi_lasr
    dadd.o(.text) refers to depilogue.o(.text) for _double_epilogue
    dmul.o(.text) refers (Special) to iusefp.o(.text) for __I$use$fp
    dmul.o(.text) refers to depilogue.o(.text) for _double_epilogue
    ddiv.o(.text) refers (Special) to iusefp.o(.text) for __I$use$fp
    ddiv.o(.text) refers to depilogue.o(.text) for _double_round
    ffltui.o(.text) refers (Special) to iusefp.o(.text) for __I$use$fp
    ffltui.o(.text) refers to fepilogue.o(.text) for _float_epilogue
    dflti.o(.text) refers (Special) to iusefp.o(.text) for __I$use$fp
    dflti.o(.text) refers to depilogue.o(.text) for _double_epilogue
    dfltui.o(.text) refers (Special) to iusefp.o(.text) for __I$use$fp
    dfltui.o(.text) refers to depilogue.o(.text) for _double_epilogue
    dfixui.o(.text) refers (Special) to iusefp.o(.text) for __I$use$fp
    dfixui.o(.text) refers to llushr.o(.text) for __aeabi_llsr
    f2d.o(.text) refers (Special) to iusefp.o(.text) for __I$use$fp
    d2f.o(.text) refers (Special) to iusefp.o(.text) for __I$use$fp
    d2f.o(.text) refers to fepilogue.o(.text) for _float_round
    dunder.o(i.__mathlib_dbl_divzero) refers to ddiv.o(.text) for __aeabi_ddiv
    dunder.o(i.__mathlib_dbl_infnan) refers to dscalb.o(.text) for __ARM_scalbn
    dunder.o(i.__mathlib_dbl_infnan2) refers to dadd.o(.text) for __aeabi_dadd
    dunder.o(i.__mathlib_dbl_invalid) refers to ddiv.o(.text) for __aeabi_ddiv
    dunder.o(i.__mathlib_dbl_overflow) refers to dscalb.o(.text) for __ARM_scalbn
    dunder.o(i.__mathlib_dbl_posinfnan) refers to dmul.o(.text) for __aeabi_dmul
    dunder.o(i.__mathlib_dbl_underflow) refers to dscalb.o(.text) for __ARM_scalbn
    fpclassify.o(i.__ARM_fpclassify) refers (Special) to iusefp.o(.text) for __I$use$fp
    poly.o(i.__kernel_poly) refers (Special) to iusefp.o(.text) for __I$use$fp
    poly.o(i.__kernel_poly) refers to dmul.o(.text) for __aeabi_dmul
    poly.o(i.__kernel_poly) refers to dadd.o(.text) for __aeabi_dadd
    qnan.o(.constdata) refers (Special) to iusefp.o(.text) for __I$use$fp
    sqrt.o(i.__softfp_sqrt) refers (Special) to iusefp.o(.text) for __I$use$fp
    sqrt.o(i.__softfp_sqrt) refers to dsqrt.o(.text) for _dsqrt
    sqrt.o(i.__softfp_sqrt) refers to errno.o(i.__set_errno) for __set_errno
    sqrt.o(i.sqrt) refers (Special) to iusefp.o(.text) for __I$use$fp
    sqrt.o(i.sqrt) refers to dsqrt.o(.text) for _dsqrt
    sqrt.o(i.sqrt) refers to errno.o(i.__set_errno) for __set_errno
    sqrt_x.o(i.____softfp_sqrt$lsc) refers (Special) to iusefp.o(.text) for __I$use$fp
    sqrt_x.o(i.____softfp_sqrt$lsc) refers to cdcmple.o(.text) for __aeabi_cdcmple
    sqrt_x.o(i.____softfp_sqrt$lsc) refers to errno.o(i.__set_errno) for __set_errno
    sqrt_x.o(i.____softfp_sqrt$lsc) refers to dsqrt.o(.text) for _dsqrt
    sqrt_x.o(i.__sqrt$lsc) refers (Special) to iusefp.o(.text) for __I$use$fp
    sqrt_x.o(i.__sqrt$lsc) refers to cdcmple.o(.text) for __aeabi_cdcmple
    sqrt_x.o(i.__sqrt$lsc) refers to errno.o(i.__set_errno) for __set_errno
    sqrt_x.o(i.__sqrt$lsc) refers to dsqrt.o(.text) for _dsqrt
    entry2.o(.ARM.Collect$$$$00000001) refers to entry2.o(.ARM.Collect$$$$00002712) for __lit__00000000
    entry2.o(.ARM.Collect$$$$00002712) refers to startup_stm32f10x_hd.o(STACK) for __initial_sp
    entry2.o(__vectab_stack_and_reset_area) refers to startup_stm32f10x_hd.o(STACK) for __initial_sp
    entry2.o(__vectab_stack_and_reset_area) refers to entry.o(.ARM.Collect$$$$00000000) for __main
    entry5.o(.ARM.Collect$$$$00000004) refers to init.o(.text) for __scatterload
    entry9a.o(.ARM.Collect$$$$0000000B) refers to startup.o(.text) for main
    entry9b.o(.ARM.Collect$$$$0000000C) refers to startup.o(.text) for main
    fputc.o(i.fputc) refers (Special) to iusesemip.o(.text) for __I$use$semihosting$fputc
    fputc.o(i.fputc) refers (Special) to semi.o(.text) for __semihosting_library_function
    uldiv.o(.text) refers to llushr.o(.text) for __aeabi_llsr
    uldiv.o(.text) refers to llshl.o(.text) for __aeabi_llsl
    errno.o(i.__aeabi_errno_addr) refers to errno.o(.data) for .data
    errno.o(i.__read_errno) refers to errno.o(.data) for .data
    errno.o(i.__set_errno) refers to errno.o(.data) for .data
    strtol.o(.text) refers to ctype_o.o(.text) for __rt_ctype_table
    strtol.o(.text) refers to _strtoul.o(.text) for _strtoul
    strtol.o(.text) refers to errno.o(i.__aeabi_errno_addr) for __aeabi_errno_addr
    depilogue.o(.text) refers to llshl.o(.text) for __aeabi_llsl
    depilogue.o(.text) refers to llushr.o(.text) for __aeabi_llsr
    dfixul.o(.text) refers to llushr.o(.text) for __aeabi_llsr
    dfixul.o(.text) refers to llshl.o(.text) for __aeabi_llsl
    init.o(.text) refers to entry5.o(.ARM.Collect$$$$00000004) for __main_after_scatterload
    ctype_o.o(.text) refers to ctype_o.o(.constdata) for .constdata
    ctype_o.o(.constdata) refers to ctype_o.o(.constdata) for __ctype_table
    isalnum_o.o(.text) refers to ctype_o.o(.text) for __rt_ctype_table
    isalpha_o.o(.text) refers to ctype_o.o(.text) for __rt_ctype_table
    isblank_o.o(.text) refers to ctype_o.o(.constdata) for __ctype_table
    iscntrl_o.o(.text) refers to ctype_o.o(.text) for __rt_ctype_table
    isdigit_o.o(.text) refers to ctype_o.o(.text) for __rt_ctype_table
    isgraph_o.o(.text) refers to ctype_o.o(.text) for __rt_ctype_table
    islower_o.o(.text) refers to ctype_o.o(.text) for __rt_ctype_table
    isprint_o.o(.text) refers to ctype_o.o(.text) for __rt_ctype_table
    ispunct_o.o(.text) refers to ctype_o.o(.text) for __rt_ctype_table
    isspace_o.o(.text) refers to ctype_o.o(.text) for __rt_ctype_table
    isupper_o.o(.text) refers to ctype_o.o(.text) for __rt_ctype_table
    isxdigit_o.o(.text) refers to ctype_o.o(.text) for __rt_ctype_table
    _strtoul.o(.text) refers to _chval.o(.text) for _chval
    _strtoul.o(.text) refers to errno.o(i.__aeabi_errno_addr) for __aeabi_errno_addr
    dsqrt.o(.text) refers to llushr.o(.text) for __aeabi_llsr
    dsqrt.o(.text) refers to depilogue.o(.text) for _double_round


==============================================================================

Removing Unused input sections from the image.

    Removing startup_stm32f10x_hd.o(HEAP), (512 bytes).
    Removing stm32f10x_adc.o(.text), (3652 bytes).
    Removing stm32f10x_adc.o(.conststring), (86 bytes).
    Removing stm32f10x_can.o(.text), (4284 bytes).
    Removing stm32f10x_can.o(.conststring), (86 bytes).
    Removing stm32f10x_cec.o(.text), (632 bytes).
    Removing stm32f10x_cec.o(.conststring), (86 bytes).
    Removing stm32f10x_crc.o(.text), (72 bytes).
    Removing stm32f10x_dac.o(.text), (1100 bytes).
    Removing stm32f10x_dac.o(.conststring), (86 bytes).
    Removing stm32f10x_dbgmcu.o(.text), (96 bytes).
    Removing stm32f10x_dbgmcu.o(.conststring), (89 bytes).
    Removing stm32f10x_flash.o(.text), (1868 bytes).
    Removing stm32f10x_flash.o(.conststring), (88 bytes).
    Removing stm32f10x_fsmc.o(.text), (3356 bytes).
    Removing stm32f10x_fsmc.o(.conststring), (87 bytes).
    Removing stm32f10x_i2c.o(.text), (3112 bytes).
    Removing stm32f10x_i2c.o(.conststring), (86 bytes).
    Removing stm32f10x_iwdg.o(.text), (172 bytes).
    Removing stm32f10x_iwdg.o(.conststring), (87 bytes).
    Removing stm32f10x_sdio.o(.text), (1548 bytes).
    Removing stm32f10x_sdio.o(.conststring), (87 bytes).
    Removing stm32f10x_tim.o(.text), (14044 bytes).
    Removing stm32f10x_tim.o(.conststring), (86 bytes).
    Removing stm32f10x_wwdg.o(.text), (232 bytes).
    Removing stm32f10x_wwdg.o(.conststring), (87 bytes).
    Removing mempool.o(.text), (1028 bytes).
    Removing mempool.o(.constdata), (62 bytes).
    Removing mempool.o(.data), (8 bytes).
    Removing backtrace.o(.text), (2 bytes).
    Removing div0.o(.text), (4 bytes).
    Removing showmem.o(.text), (120 bytes).
    Removing showmem.o(.constdata), (18 bytes).
    Removing pipe.o(.text), (1148 bytes).
    Removing pipe.o(.constdata), (86 bytes).
    Removing portal.o(.text), (712 bytes).
    Removing portal.o(.constdata), (95 bytes).
    Removing ringbuffer.o(.text), (1176 bytes).
    Removing ringbuffer.o(.constdata), (151 bytes).
    Removing workqueue.o(.text), (624 bytes).
    Removing workqueue.o(.constdata), (146 bytes).
    Removing mcu_softispi.o(.text), (1028 bytes).
    Removing mcu_softispi.o(.data), (24 bytes).
    Removing mcu_wdg.o(.text), (164 bytes).
    Removing finsh_app.o(.text), (24 bytes).
    Removing textlcd.o(.text), (812 bytes).
    Removing textlcd.o(.data), (20 bytes).
    Removing dido.o(.text), (956 bytes).
    Removing dido.o(.data), (40 bytes).
    Removing dfixui.o(.text), (50 bytes).
    Removing dscalb.o(.text), (46 bytes).
    Removing dsqrt.o(.text), (162 bytes).
    Removing cdcmple.o(.text), (48 bytes).

53 unused section(s) (total 44475 bytes) removed from the image.

==============================================================================

Image Symbol Table

    Local Symbols

    Symbol Name                              Value     Ov Type        Size  Object(Section)

    ../clib/../cmprslib/zerorunl2.c          0x00000000   Number         0  __dczerorl2.o ABSOLUTE
    ../clib/microlib/ctype/ctype.c           0x00000000   Number         0  isdigit_o.o ABSOLUTE
    ../clib/microlib/ctype/ctype.c           0x00000000   Number         0  isalpha_o.o ABSOLUTE
    ../clib/microlib/ctype/ctype.c           0x00000000   Number         0  isblank_o.o ABSOLUTE
    ../clib/microlib/ctype/ctype.c           0x00000000   Number         0  isalnum_o.o ABSOLUTE
    ../clib/microlib/ctype/ctype.c           0x00000000   Number         0  isspace_o.o ABSOLUTE
    ../clib/microlib/ctype/ctype.c           0x00000000   Number         0  isxdigit_o.o ABSOLUTE
    ../clib/microlib/ctype/ctype.c           0x00000000   Number         0  iscntrl_o.o ABSOLUTE
    ../clib/microlib/ctype/ctype.c           0x00000000   Number         0  isupper_o.o ABSOLUTE
    ../clib/microlib/ctype/ctype.c           0x00000000   Number         0  ctype_o.o ABSOLUTE
    ../clib/microlib/ctype/ctype.c           0x00000000   Number         0  isgraph_o.o ABSOLUTE
    ../clib/microlib/ctype/ctype.c           0x00000000   Number         0  islower_o.o ABSOLUTE
    ../clib/microlib/ctype/ctype.c           0x00000000   Number         0  isprint_o.o ABSOLUTE
    ../clib/microlib/ctype/ctype.c           0x00000000   Number         0  ispunct_o.o ABSOLUTE
    ../clib/microlib/division.c              0x00000000   Number         0  uldiv.o ABSOLUTE
    ../clib/microlib/division.c              0x00000000   Number         0  uidiv.o ABSOLUTE
    ../clib/microlib/errno.c                 0x00000000   Number         0  errno.o ABSOLUTE
    ../clib/microlib/init/entry.s            0x00000000   Number         0  entry11a.o ABSOLUTE
    ../clib/microlib/init/entry.s            0x00000000   Number         0  entry9a.o ABSOLUTE
    ../clib/microlib/init/entry.s            0x00000000   Number         0  entry8a.o ABSOLUTE
    ../clib/microlib/init/entry.s            0x00000000   Number         0  entry2.o ABSOLUTE
    ../clib/microlib/init/entry.s            0x00000000   Number         0  entry7b.o ABSOLUTE
    ../clib/microlib/init/entry.s            0x00000000   Number         0  entry.o ABSOLUTE
    ../clib/microlib/init/entry.s            0x00000000   Number         0  entry10b.o ABSOLUTE
    ../clib/microlib/init/entry.s            0x00000000   Number         0  entry5.o ABSOLUTE
    ../clib/microlib/init/entry.s            0x00000000   Number         0  entry11b.o ABSOLUTE
    ../clib/microlib/init/entry.s            0x00000000   Number         0  entry7a.o ABSOLUTE
    ../clib/microlib/init/entry.s            0x00000000   Number         0  entry10a.o ABSOLUTE
    ../clib/microlib/init/entry.s            0x00000000   Number         0  entry9b.o ABSOLUTE
    ../clib/microlib/init/entry.s            0x00000000   Number         0  entry8b.o ABSOLUTE
    ../clib/microlib/longlong.c              0x00000000   Number         0  llsshr.o ABSOLUTE
    ../clib/microlib/longlong.c              0x00000000   Number         0  llushr.o ABSOLUTE
    ../clib/microlib/longlong.c              0x00000000   Number         0  llshl.o ABSOLUTE
    ../clib/microlib/printf/printf.c         0x00000000   Number         0  printf1.o ABSOLUTE
    ../clib/microlib/printf/printf.c         0x00000000   Number         0  printf3.o ABSOLUTE
    ../clib/microlib/printf/printf.c         0x00000000   Number         0  printf4.o ABSOLUTE
    ../clib/microlib/printf/printf.c         0x00000000   Number         0  printf2.o ABSOLUTE
    ../clib/microlib/printf/printf.c         0x00000000   Number         0  printf5.o ABSOLUTE
    ../clib/microlib/printf/printf.c         0x00000000   Number         0  printf6.o ABSOLUTE
    ../clib/microlib/printf/printf.c         0x00000000   Number         0  printf7.o ABSOLUTE
    ../clib/microlib/printf/printf.c         0x00000000   Number         0  printfa.o ABSOLUTE
    ../clib/microlib/printf/printf.c         0x00000000   Number         0  printfb.o ABSOLUTE
    ../clib/microlib/printf/printf.c         0x00000000   Number         0  printf0.o ABSOLUTE
    ../clib/microlib/printf/printf.c         0x00000000   Number         0  printf8.o ABSOLUTE
    ../clib/microlib/printf/stubs.s          0x00000000   Number         0  stubs.o ABSOLUTE
    ../clib/microlib/stdio/fputc.c           0x00000000   Number         0  fputc.o ABSOLUTE
    ../clib/microlib/stdio/semi.s            0x00000000   Number         0  semi.o ABSOLUTE
    ../clib/microlib/stdio/streams.c         0x00000000   Number         0  stdout.o ABSOLUTE
    ../clib/microlib/string/memcpy.c         0x00000000   Number         0  memcpya.o ABSOLUTE
    ../clib/microlib/string/memcpy.c         0x00000000   Number         0  memcpyb.o ABSOLUTE
    ../clib/microlib/string/memset.c         0x00000000   Number         0  memseta.o ABSOLUTE
    ../clib/microlib/string/strcmp.c         0x00000000   Number         0  strcmp.o ABSOLUTE
    ../clib/microlib/string/strlen.c         0x00000000   Number         0  strlen.o ABSOLUTE
    ../clib/microlib/string/strncmp.c        0x00000000   Number         0  strncmp.o ABSOLUTE
    ../clib/microlib/string/strncpy.c        0x00000000   Number         0  strncpy.o ABSOLUTE
    ../clib/microlib/stubs.s                 0x00000000   Number         0  iusefp.o ABSOLUTE
    ../clib/microlib/stubs.s                 0x00000000   Number         0  iusesemip.o ABSOLUTE
    ../clib/scanf.c                          0x00000000   Number         0  _chval.o ABSOLUTE
    ../clib/scanf.c                          0x00000000   Number         0  _strtoul.o ABSOLUTE
    ../clib/scanf.c                          0x00000000   Number         0  strtol.o ABSOLUTE
    ../clib/scanf.c                          0x00000000   Number         0  atoi.o ABSOLUTE
    ../fplib/microlib/d2f.c                  0x00000000   Number         0  d2f.o ABSOLUTE
    ../fplib/microlib/f2d.c                  0x00000000   Number         0  f2d.o ABSOLUTE
    ../fplib/microlib/fpadd.c                0x00000000   Number         0  dadd.o ABSOLUTE
    ../fplib/microlib/fpdiv.c                0x00000000   Number         0  ddiv.o ABSOLUTE
    ../fplib/microlib/fpepilogue.c           0x00000000   Number         0  depilogue.o ABSOLUTE
    ../fplib/microlib/fpepilogue.c           0x00000000   Number         0  fepilogue.o ABSOLUTE
    ../fplib/microlib/fpfix.c                0x00000000   Number         0  dfixul.o ABSOLUTE
    ../fplib/microlib/fpfix.c                0x00000000   Number         0  dfixui.o ABSOLUTE
    ../fplib/microlib/fpflt.c                0x00000000   Number         0  dflti.o ABSOLUTE
    ../fplib/microlib/fpflt.c                0x00000000   Number         0  dfltui.o ABSOLUTE
    ../fplib/microlib/fpflt.c                0x00000000   Number         0  ffltui.o ABSOLUTE
    ../fplib/microlib/fpmul.c                0x00000000   Number         0  fmul.o ABSOLUTE
    ../fplib/microlib/fpmul.c                0x00000000   Number         0  dmul.o ABSOLUTE
    ../fplib/microlib/fpscalb.c              0x00000000   Number         0  dscalb.o ABSOLUTE
    ../fplib/microlib/fpsqrt.c               0x00000000   Number         0  dsqrt.o ABSOLUTE
    ../mathlib/dunder.c                      0x00000000   Number         0  dunder.o ABSOLUTE
    ../mathlib/fpclassify.c                  0x00000000   Number         0  fpclassify.o ABSOLUTE
    ../mathlib/poly.c                        0x00000000   Number         0  poly.o ABSOLUTE
    ../mathlib/pow.c                         0x00000000   Number         0  pow.o ABSOLUTE
    ../mathlib/pow.c                         0x00000000   Number         0  pow_x.o ABSOLUTE
    ../mathlib/qnan.c                        0x00000000   Number         0  qnan.o ABSOLUTE
    ../mathlib/sqrt.c                        0x00000000   Number         0  sqrt_x.o ABSOLUTE
    ../mathlib/sqrt.c                        0x00000000   Number         0  sqrt.o ABSOLUTE
    ..\..\..\Libraries\myLib\Logic\74HC165.c 0x00000000   Number         0  74hc165.o ABSOLUTE
    ..\..\..\Libraries\myLib\Logic\74HC595.c 0x00000000   Number         0  74hc595.o ABSOLUTE
    ..\..\..\Libraries\myLib\adc\mcp3421.c   0x00000000   Number         0  mcp3421.o ABSOLUTE
    ..\..\..\Libraries\myLib\bsp\delay.c     0x00000000   Number         0  delay.o ABSOLUTE
    ..\..\..\Libraries\myLib\bsp\sys.c       0x00000000   Number         0  sys.o ABSOLUTE
    ..\..\..\Libraries\myLib\dido\dido.c     0x00000000   Number         0  dido.o ABSOLUTE
    ..\..\..\Libraries\myLib\eeprom\at24cxx.c 0x00000000   Number         0  at24cxx.o ABSOLUTE
    ..\..\..\Libraries\myLib\flash\w25qxx.c  0x00000000   Number         0  w25qxx.o ABSOLUTE
    ..\..\..\Libraries\myLib\lcd\TextLCD.c   0x00000000   Number         0  textlcd.o ABSOLUTE
    ..\..\..\Libraries\myLib\math\crc.c      0x00000000   Number         0  crc.o ABSOLUTE
    ..\..\..\Libraries\myLib\motion\L6480.c  0x00000000   Number         0  l6480.o ABSOLUTE
    ..\..\..\Libraries\myLib\peripherals\mcu_exit.c 0x00000000   Number         0  mcu_exit.o ABSOLUTE
    ..\..\..\Libraries\myLib\peripherals\mcu_gpio.c 0x00000000   Number         0  mcu_gpio.o ABSOLUTE
    ..\..\..\Libraries\myLib\peripherals\mcu_rtc.c 0x00000000   Number         0  mcu_rtc.o ABSOLUTE
    ..\..\..\Libraries\myLib\peripherals\mcu_softi2c.c 0x00000000   Number         0  mcu_softi2c.o ABSOLUTE
    ..\..\..\Libraries\myLib\peripherals\mcu_softispi.c 0x00000000   Number         0  mcu_softispi.o ABSOLUTE
    ..\..\..\Libraries\myLib\peripherals\mcu_spi.c 0x00000000   Number         0  mcu_spi.o ABSOLUTE
    ..\..\..\Libraries\myLib\peripherals\mcu_wdg.c 0x00000000   Number         0  mcu_wdg.o ABSOLUTE
    ..\..\..\Libraries\myLib\rtc\calendar.c  0x00000000   Number         0  calendar.o ABSOLUTE
    ..\..\..\Libraries\myLib\sensor\ds18b20.c 0x00000000   Number         0  ds18b20.o ABSOLUTE
    ..\..\..\Libraries\myLib\sensor\isl29125.c 0x00000000   Number         0  isl29125.o ABSOLUTE
    ..\..\..\Libraries\stm32f10x_Libraries\STM32F10x_StdPeriph_Driver\src\misc.c 0x00000000   Number         0  misc.o ABSOLUTE
    ..\..\..\Libraries\stm32f10x_Libraries\STM32F10x_StdPeriph_Driver\src\stm32f10x_adc.c 0x00000000   Number         0  stm32f10x_adc.o ABSOLUTE
    ..\..\..\Libraries\stm32f10x_Libraries\STM32F10x_StdPeriph_Driver\src\stm32f10x_bkp.c 0x00000000   Number         0  stm32f10x_bkp.o ABSOLUTE
    ..\..\..\Libraries\stm32f10x_Libraries\STM32F10x_StdPeriph_Driver\src\stm32f10x_can.c 0x00000000   Number         0  stm32f10x_can.o ABSOLUTE
    ..\..\..\Libraries\stm32f10x_Libraries\STM32F10x_StdPeriph_Driver\src\stm32f10x_cec.c 0x00000000   Number         0  stm32f10x_cec.o ABSOLUTE
    ..\..\..\Libraries\stm32f10x_Libraries\STM32F10x_StdPeriph_Driver\src\stm32f10x_crc.c 0x00000000   Number         0  stm32f10x_crc.o ABSOLUTE
    ..\..\..\Libraries\stm32f10x_Libraries\STM32F10x_StdPeriph_Driver\src\stm32f10x_dac.c 0x00000000   Number         0  stm32f10x_dac.o ABSOLUTE
    ..\..\..\Libraries\stm32f10x_Libraries\STM32F10x_StdPeriph_Driver\src\stm32f10x_dbgmcu.c 0x00000000   Number         0  stm32f10x_dbgmcu.o ABSOLUTE
    ..\..\..\Libraries\stm32f10x_Libraries\STM32F10x_StdPeriph_Driver\src\stm32f10x_dma.c 0x00000000   Number         0  stm32f10x_dma.o ABSOLUTE
    ..\..\..\Libraries\stm32f10x_Libraries\STM32F10x_StdPeriph_Driver\src\stm32f10x_exti.c 0x00000000   Number         0  stm32f10x_exti.o ABSOLUTE
    ..\..\..\Libraries\stm32f10x_Libraries\STM32F10x_StdPeriph_Driver\src\stm32f10x_flash.c 0x00000000   Number         0  stm32f10x_flash.o ABSOLUTE
    ..\..\..\Libraries\stm32f10x_Libraries\STM32F10x_StdPeriph_Driver\src\stm32f10x_fsmc.c 0x00000000   Number         0  stm32f10x_fsmc.o ABSOLUTE
    ..\..\..\Libraries\stm32f10x_Libraries\STM32F10x_StdPeriph_Driver\src\stm32f10x_gpio.c 0x00000000   Number         0  stm32f10x_gpio.o ABSOLUTE
    ..\..\..\Libraries\stm32f10x_Libraries\STM32F10x_StdPeriph_Driver\src\stm32f10x_i2c.c 0x00000000   Number         0  stm32f10x_i2c.o ABSOLUTE
    ..\..\..\Libraries\stm32f10x_Libraries\STM32F10x_StdPeriph_Driver\src\stm32f10x_iwdg.c 0x00000000   Number         0  stm32f10x_iwdg.o ABSOLUTE
    ..\..\..\Libraries\stm32f10x_Libraries\STM32F10x_StdPeriph_Driver\src\stm32f10x_pwr.c 0x00000000   Number         0  stm32f10x_pwr.o ABSOLUTE
    ..\..\..\Libraries\stm32f10x_Libraries\STM32F10x_StdPeriph_Driver\src\stm32f10x_rcc.c 0x00000000   Number         0  stm32f10x_rcc.o ABSOLUTE
    ..\..\..\Libraries\stm32f10x_Libraries\STM32F10x_StdPeriph_Driver\src\stm32f10x_rtc.c 0x00000000   Number         0  stm32f10x_rtc.o ABSOLUTE
    ..\..\..\Libraries\stm32f10x_Libraries\STM32F10x_StdPeriph_Driver\src\stm32f10x_sdio.c 0x00000000   Number         0  stm32f10x_sdio.o ABSOLUTE
    ..\..\..\Libraries\stm32f10x_Libraries\STM32F10x_StdPeriph_Driver\src\stm32f10x_spi.c 0x00000000   Number         0  stm32f10x_spi.o ABSOLUTE
    ..\..\..\Libraries\stm32f10x_Libraries\STM32F10x_StdPeriph_Driver\src\stm32f10x_tim.c 0x00000000   Number         0  stm32f10x_tim.o ABSOLUTE
    ..\..\..\Libraries\stm32f10x_Libraries\STM32F10x_StdPeriph_Driver\src\stm32f10x_usart.c 0x00000000   Number         0  stm32f10x_usart.o ABSOLUTE
    ..\..\..\Libraries\stm32f10x_Libraries\STM32F10x_StdPeriph_Driver\src\stm32f10x_wwdg.c 0x00000000   Number         0  stm32f10x_wwdg.o ABSOLUTE
    ..\..\..\Libraries\stm32f10x_Libraries\startup_stm32f10x_hd.s 0x00000000   Number         0  startup_stm32f10x_hd.o ABSOLUTE
    ..\..\..\Libraries\stm32f10x_Libraries\system_stm32f10x.c 0x00000000   Number         0  system_stm32f10x.o ABSOLUTE
    ..\..\components\drivers\can\can.c       0x00000000   Number         0  can.o ABSOLUTE
    ..\..\components\drivers\serial\serial.c 0x00000000   Number         0  serial.o ABSOLUTE
    ..\..\components\drivers\src\completion.c 0x00000000   Number         0  completion.o ABSOLUTE
    ..\..\components\drivers\src\dataqueue.c 0x00000000   Number         0  dataqueue.o ABSOLUTE
    ..\..\components\drivers\src\pipe.c      0x00000000   Number         0  pipe.o ABSOLUTE
    ..\..\components\drivers\src\portal.c    0x00000000   Number         0  portal.o ABSOLUTE
    ..\..\components\drivers\src\ringbuffer.c 0x00000000   Number         0  ringbuffer.o ABSOLUTE
    ..\..\components\drivers\src\workqueue.c 0x00000000   Number         0  workqueue.o ABSOLUTE
    ..\..\components\finsh\cmd.c             0x00000000   Number         0  cmd.o ABSOLUTE
    ..\..\components\finsh\finsh_compiler.c  0x00000000   Number         0  finsh_compiler.o ABSOLUTE
    ..\..\components\finsh\finsh_error.c     0x00000000   Number         0  finsh_error.o ABSOLUTE
    ..\..\components\finsh\finsh_heap.c      0x00000000   Number         0  finsh_heap.o ABSOLUTE
    ..\..\components\finsh\finsh_init.c      0x00000000   Number         0  finsh_init.o ABSOLUTE
    ..\..\components\finsh\finsh_node.c      0x00000000   Number         0  finsh_node.o ABSOLUTE
    ..\..\components\finsh\finsh_ops.c       0x00000000   Number         0  finsh_ops.o ABSOLUTE
    ..\..\components\finsh\finsh_parser.c    0x00000000   Number         0  finsh_parser.o ABSOLUTE
    ..\..\components\finsh\finsh_token.c     0x00000000   Number         0  finsh_token.o ABSOLUTE
    ..\..\components\finsh\finsh_var.c       0x00000000   Number         0  finsh_var.o ABSOLUTE
    ..\..\components\finsh\finsh_vm.c        0x00000000   Number         0  finsh_vm.o ABSOLUTE
    ..\..\components\finsh\shell.c           0x00000000   Number         0  shell.o ABSOLUTE
    ..\..\components\finsh\symbol.c          0x00000000   Number         0  symbol.o ABSOLUTE
    ..\..\libcpu\arm\common\backtrace.c      0x00000000   Number         0  backtrace.o ABSOLUTE
    ..\..\libcpu\arm\common\div0.c           0x00000000   Number         0  div0.o ABSOLUTE
    ..\..\libcpu\arm\common\showmem.c        0x00000000   Number         0  showmem.o ABSOLUTE
    ..\..\libcpu\arm\cortex-m3\context_rvds.S 0x00000000   Number         0  context_rvds.o ABSOLUTE
    ..\..\libcpu\arm\cortex-m3\cpuport.c     0x00000000   Number         0  cpuport.o ABSOLUTE
    ..\..\myRTT\finsh_adc.c                  0x00000000   Number         0  finsh_adc_1.o ABSOLUTE
    ..\..\myRTT\finsh_app.c                  0x00000000   Number         0  finsh_app.o ABSOLUTE
    ..\..\myRTT\finsh_eeprom.c               0x00000000   Number         0  finsh_eeprom.o ABSOLUTE
    ..\..\myRTT\finsh_flash.c                0x00000000   Number         0  finsh_flash_1.o ABSOLUTE
    ..\..\myRTT\finsh_l6480.c                0x00000000   Number         0  finsh_l6480_1.o ABSOLUTE
    ..\..\myRTT\finsh_logic.c                0x00000000   Number         0  finsh_logic.o ABSOLUTE
    ..\..\myRTT\finsh_motor.c                0x00000000   Number         0  finsh_motor.o ABSOLUTE
    ..\..\myRTT\finsh_rgb_sensor.c           0x00000000   Number         0  finsh_rgb_sensor_1.o ABSOLUTE
    ..\..\myRTT\finsh_rtc.c                  0x00000000   Number         0  finsh_rtc_1.o ABSOLUTE
    ..\..\myRTT\finsh_temp_sensor.c          0x00000000   Number         0  finsh_temp_sensor.o ABSOLUTE
    ..\..\myRTT\finsh_test.c                 0x00000000   Number         0  finsh_test.o ABSOLUTE
    ..\..\src\clock.c                        0x00000000   Number         0  clock.o ABSOLUTE
    ..\..\src\components.c                   0x00000000   Number         0  components.o ABSOLUTE
    ..\..\src\device.c                       0x00000000   Number         0  device.o ABSOLUTE
    ..\..\src\idle.c                         0x00000000   Number         0  idle.o ABSOLUTE
    ..\..\src\ipc.c                          0x00000000   Number         0  ipc.o ABSOLUTE
    ..\..\src\irq.c                          0x00000000   Number         0  irq.o ABSOLUTE
    ..\..\src\kservice.c                     0x00000000   Number         0  kservice.o ABSOLUTE
    ..\..\src\mem.c                          0x00000000   Number         0  mem.o ABSOLUTE
    ..\..\src\mempool.c                      0x00000000   Number         0  mempool.o ABSOLUTE
    ..\..\src\object.c                       0x00000000   Number         0  object.o ABSOLUTE
    ..\..\src\scheduler.c                    0x00000000   Number         0  scheduler.o ABSOLUTE
    ..\..\src\thread.c                       0x00000000   Number         0  thread.o ABSOLUTE
    ..\..\src\timer.c                        0x00000000   Number         0  timer.o ABSOLUTE
    applications\application.c               0x00000000   Number         0  application.o ABSOLUTE
    applications\startup.c                   0x00000000   Number         0  startup.o ABSOLUTE
    cdcmple.s                                0x00000000   Number         0  cdcmple.o ABSOLUTE
    cdrcmple.s                               0x00000000   Number         0  cdrcmple.o ABSOLUTE
    dc.s                                     0x00000000   Number         0  dc.o ABSOLUTE
    drivers\board.c                          0x00000000   Number         0  board.o ABSOLUTE
    drivers\led.c                            0x00000000   Number         0  led.o ABSOLUTE
    drivers\stm32f10x_it.c                   0x00000000   Number         0  stm32f10x_it.o ABSOLUTE
    drivers\usart.c                          0x00000000   Number         0  usart.o ABSOLUTE
    handlers.s                               0x00000000   Number         0  handlers.o ABSOLUTE
    init.s                                   0x00000000   Number         0  init.o ABSOLUTE
    RESET                                    0x08000000   Section      304  startup_stm32f10x_hd.o(RESET)
    .ARM.Collect$$$$00000000                 0x08000130   Section        0  entry.o(.ARM.Collect$$$$00000000)
    .ARM.Collect$$$$00000001                 0x08000130   Section        4  entry2.o(.ARM.Collect$$$$00000001)
    .ARM.Collect$$$$00000004                 0x08000134   Section        4  entry5.o(.ARM.Collect$$$$00000004)
    .ARM.Collect$$$$00000008                 0x08000138   Section        0  entry7b.o(.ARM.Collect$$$$00000008)
    .ARM.Collect$$$$0000000A                 0x08000138   Section        0  entry8b.o(.ARM.Collect$$$$0000000A)
    .ARM.Collect$$$$0000000B                 0x08000138   Section        8  entry9a.o(.ARM.Collect$$$$0000000B)
    .ARM.Collect$$$$0000000D                 0x08000140   Section        0  entry10a.o(.ARM.Collect$$$$0000000D)
    .ARM.Collect$$$$0000000F                 0x08000140   Section        0  entry11a.o(.ARM.Collect$$$$0000000F)
    .ARM.Collect$$$$00002712                 0x08000140   Section        4  entry2.o(.ARM.Collect$$$$00002712)
    __lit__00000000                          0x08000140   Data           4  entry2.o(.ARM.Collect$$$$00002712)
    .text                                    0x08000144   Section        0  application.o(.text)
    led_thread_entry                         0x08000145   Thumb Code    32  application.o(.text)
    .text                                    0x080001d8   Section        0  startup.o(.text)
    .text                                    0x08000288   Section        0  board.o(.text)
    .text                                    0x08000320   Section        0  stm32f10x_it.o(.text)
    .text                                    0x08000334   Section        0  usart.o(.text)
    stm32_configure                          0x08000335   Thumb Code   190  usart.o(.text)
    DMA_Configuration                        0x080003f3   Thumb Code   166  usart.o(.text)
    stm32_control                            0x08000499   Thumb Code   136  usart.o(.text)
    stm32_putc                               0x08000521   Thumb Code    42  usart.o(.text)
    stm32_getc                               0x0800054b   Thumb Code    42  usart.o(.text)
    dma_uart_rx_idle_isr                     0x08000575   Thumb Code    82  usart.o(.text)
    dma_rx_done_isr                          0x080005c7   Thumb Code    88  usart.o(.text)
    uart_isr                                 0x0800061f   Thumb Code   108  usart.o(.text)
    RCC_Configuration                        0x080006af   Thumb Code    20  usart.o(.text)
    GPIO_Configuration                       0x080006c3   Thumb Code    52  usart.o(.text)
    NVIC_Configuration                       0x080006f7   Thumb Code   118  usart.o(.text)
    .text                                    0x080007c4   Section        0  system_stm32f10x.o(.text)
    SetSysClockTo72                          0x080007c5   Thumb Code   214  system_stm32f10x.o(.text)
    SetSysClock                              0x0800089b   Thumb Code     8  system_stm32f10x.o(.text)
    .text                                    0x080009ac   Section       36  startup_stm32f10x_hd.o(.text)
    .text                                    0x080009d0   Section        0  misc.o(.text)
    .text                                    0x08000b88   Section        0  stm32f10x_bkp.o(.text)
    .text                                    0x08000e24   Section        0  stm32f10x_dma.o(.text)
    .text                                    0x0800171c   Section        0  stm32f10x_exti.o(.text)
    .text                                    0x080019c8   Section        0  stm32f10x_gpio.o(.text)
    .text                                    0x080023f0   Section        0  stm32f10x_pwr.o(.text)
    .text                                    0x0800257c   Section        0  stm32f10x_rcc.o(.text)
    .text                                    0x08002d70   Section        0  stm32f10x_rtc.o(.text)
    .text                                    0x08002f68   Section        0  stm32f10x_spi.o(.text)
    .text                                    0x08003884   Section        0  stm32f10x_usart.o(.text)
    .text                                    0x080045b8   Section        0  clock.o(.text)
    .text                                    0x0800461c   Section        0  device.o(.text)
    .text                                    0x08004940   Section        0  idle.o(.text)
    rt_thread_idle_entry                     0x080049e1   Thumb Code    20  idle.o(.text)
    _has_defunct_thread                      0x08004a1f   Thumb Code    16  idle.o(.text)
    .text                                    0x08004a78   Section        0  ipc.o(.text)
    rt_list_insert_before                    0x08004a79   Thumb Code    14  ipc.o(.text)
    rt_ipc_list_suspend                      0x08004a87   Thumb Code   108  ipc.o(.text)
    rt_ipc_list_resume_all                   0x08004af3   Thumb Code    50  ipc.o(.text)
    rt_list_init                             0x08006077   Thumb Code     6  ipc.o(.text)
    rt_list_isempty                          0x0800607d   Thumb Code    16  ipc.o(.text)
    rt_ipc_object_init                       0x0800608d   Thumb Code    16  ipc.o(.text)
    rt_ipc_list_resume                       0x0800609d   Thumb Code    24  ipc.o(.text)
    .text                                    0x080060cc   Section        0  irq.o(.text)
    .text                                    0x08006148   Section        0  kservice.o(.text)
    print_number                             0x0800640d   Thumb Code   400  kservice.o(.text)
    skip_atoi                                0x0800659d   Thumb Code    38  kservice.o(.text)
    .text                                    0x08006c0c   Section        0  mem.o(.text)
    plug_holes                               0x08006c19   Thumb Code   160  mem.o(.text)
    .text                                    0x08007480   Section        0  object.o(.text)
    rt_list_insert_after                     0x08007481   Thumb Code    14  object.o(.text)
    rt_list_remove                           0x0800748f   Thumb Code    18  object.o(.text)
    .text                                    0x0800775c   Section        0  scheduler.o(.text)
    _rt_scheduler_stack_check                0x08007763   Thumb Code    90  scheduler.o(.text)
    rt_list_init                             0x080079a9   Thumb Code     6  scheduler.o(.text)
    .text                                    0x08007a44   Section        0  thread.o(.text)
    rt_list_insert_after                     0x08007a45   Thumb Code    14  thread.o(.text)
    rt_list_remove                           0x08007a53   Thumb Code    18  thread.o(.text)
    _rt_thread_init                          0x08007b05   Thumb Code   158  thread.o(.text)
    .text                                    0x08008048   Section        0  timer.o(.text)
    rt_list_insert_after                     0x08008049   Thumb Code    14  timer.o(.text)
    _rt_timer_init                           0x0800805d   Thumb Code    66  timer.o(.text)
    rt_timer_list_next_timeout               0x0800809f   Thumb Code    28  timer.o(.text)
    _rt_timer_remove                         0x080080bb   Thumb Code    46  timer.o(.text)
    rt_list_init                             0x0800842b   Thumb Code   106  timer.o(.text)
    rt_list_isempty                          0x08008495   Thumb Code    16  timer.o(.text)
    .text                                    0x080084a4   Section        0  cpuport.o(.text)
    usage_fault_track                        0x080084f1   Thumb Code   122  cpuport.o(.text)
    bus_fault_track                          0x0800856b   Thumb Code   144  cpuport.o(.text)
    mem_manage_fault_track                   0x080085fb   Thumb Code   126  cpuport.o(.text)
    hard_fault_track                         0x08008679   Thumb Code    86  cpuport.o(.text)
    .text                                    0x08008a78   Section      236  context_rvds.o(.text)
    .text                                    0x08008b64   Section        0  serial.o(.text)
    rt_dma_calc_recved_len                   0x08008b65   Thumb Code    74  serial.o(.text)
    rt_dma_recv_update_get_index             0x08008baf   Thumb Code    88  serial.o(.text)
    rt_dma_recv_update_put_index             0x08008c07   Thumb Code   152  serial.o(.text)
    _serial_dma_rx                           0x08008c9f   Thumb Code   276  serial.o(.text)
    rt_serial_init                           0x08008db3   Thumb Code    52  serial.o(.text)
    rt_serial_open                           0x08008de7   Thumb Code   682  serial.o(.text)
    rt_serial_close                          0x08009091   Thumb Code   294  serial.o(.text)
    rt_serial_read                           0x080091b7   Thumb Code    90  serial.o(.text)
    rt_serial_write                          0x08009211   Thumb Code    90  serial.o(.text)
    rt_serial_control                        0x0800926b   Thumb Code   140  serial.o(.text)
    _serial_poll_rx                          0x08009535   Thumb Code    68  serial.o(.text)
    _serial_poll_tx                          0x08009579   Thumb Code    74  serial.o(.text)
    _serial_int_rx                           0x080095c3   Thumb Code   124  serial.o(.text)
    _serial_int_tx                           0x0800963f   Thumb Code    84  serial.o(.text)
    _serial_dma_tx                           0x08009693   Thumb Code    92  serial.o(.text)
    .text                                    0x08009764   Section        0  completion.o(.text)
    rt_list_isempty                          0x080098a1   Thumb Code    16  completion.o(.text)
    .text                                    0x0800992c   Section        0  dataqueue.o(.text)
    rt_list_insert_before                    0x0800992d   Thumb Code    14  dataqueue.o(.text)
    rt_list_init                             0x08009cc9   Thumb Code     6  dataqueue.o(.text)
    rt_list_isempty                          0x08009ccf   Thumb Code    16  dataqueue.o(.text)
    .text                                    0x08009d50   Section        0  can.o(.text)
    rt_list_insert_before                    0x08009d51   Thumb Code    14  can.o(.text)
    rt_list_remove                           0x08009d5f   Thumb Code    18  can.o(.text)
    rt_can_init                              0x08009d71   Thumb Code    54  can.o(.text)
    _can_int_rx                              0x08009da7   Thumb Code   348  can.o(.text)
    _can_int_tx                              0x08009f03   Thumb Code   300  can.o(.text)
    _can_int_tx_priv                         0x0800a02f   Thumb Code   256  can.o(.text)
    rt_can_open                              0x0800a12f   Thumb Code   702  can.o(.text)
    rt_can_close                             0x0800a3ed   Thumb Code   246  can.o(.text)
    rt_can_read                              0x0800a4e3   Thumb Code    68  can.o(.text)
    rt_can_write                             0x0800a527   Thumb Code    90  can.o(.text)
    rt_can_control                           0x0800a581   Thumb Code   740  can.o(.text)
    cantimeout                               0x0800a865   Thumb Code    66  can.o(.text)
    rt_list_init                             0x0800adfd   Thumb Code     6  can.o(.text)
    rt_list_isempty                          0x0800ae03   Thumb Code    16  can.o(.text)
    .text                                    0x0800ae30   Section        0  shell.o(.text)
    finsh_rx_ind                             0x0800ae31   Thumb Code    34  shell.o(.text)
    shell_auto_complete                      0x0800af49   Thumb Code    28  shell.o(.text)
    shell_handle_history                     0x0800afbf   Thumb Code    26  shell.o(.text)
    shell_push_history                       0x0800afd9   Thumb Code   190  shell.o(.text)
    .text                                    0x0800b7dc   Section        0  cmd.o(.text)
    rt_list_len                              0x0800b7dd   Thumb Code    20  cmd.o(.text)
    object_name_maxlen                       0x0800b807   Thumb Code    62  cmd.o(.text)
    _list_thread                             0x0800b845   Thumb Code   192  cmd.o(.text)
    show_wait_queue                          0x0800b90f   Thumb Code    40  cmd.o(.text)
    _list_sem                                0x0800b937   Thumb Code   144  cmd.o(.text)
    _list_event                              0x0800b9d3   Thumb Code   126  cmd.o(.text)
    _list_mutex                              0x0800ba5d   Thumb Code    92  cmd.o(.text)
    _list_mailbox                            0x0800bac5   Thumb Code   164  cmd.o(.text)
    _list_msgqueue                           0x0800bb75   Thumb Code   874  cmd.o(.text)
    _list_mempool                            0x0800bee9   Thumb Code   134  cmd.o(.text)
    _list_timer                              0x0800bf7b   Thumb Code   112  cmd.o(.text)
    _list_device                             0x0800bff7   Thumb Code   124  cmd.o(.text)
    str_is_prefix                            0x0800c0fd   Thumb Code    34  cmd.o(.text)
    str_common                               0x0800c11f   Thumb Code    32  cmd.o(.text)
    rt_list_isempty                          0x0800c535   Thumb Code    16  cmd.o(.text)
    object_split                             0x0800c545   Thumb Code    22  cmd.o(.text)
    .text                                    0x0800c568   Section        0  finsh_compiler.o(.text)
    finsh_compile                            0x0800c569   Thumb Code  5712  finsh_compiler.o(.text)
    finsh_type_check                         0x0800dbb9   Thumb Code   350  finsh_compiler.o(.text)
    .text                                    0x0800dd80   Section        0  finsh_error.o(.text)
    .text                                    0x0800ddac   Section        0  finsh_heap.o(.text)
    finsh_block_insert                       0x0800ddd1   Thumb Code    62  finsh_heap.o(.text)
    finsh_block_remove                       0x0800de0f   Thumb Code    46  finsh_heap.o(.text)
    finsh_block_split                        0x0800de3d   Thumb Code    24  finsh_heap.o(.text)
    finsh_block_merge                        0x0800de55   Thumb Code   124  finsh_heap.o(.text)
    finsh_heap_gc                            0x0800def3   Thumb Code    78  finsh_heap.o(.text)
    .text                                    0x0800dfbc   Section        0  finsh_init.o(.text)
    .text                                    0x0800e014   Section        0  finsh_node.o(.text)
    .text                                    0x0800e198   Section        0  finsh_ops.o(.text)
    .text                                    0x0800ec70   Section        0  finsh_parser.o(.text)
    make_sys_node                            0x0800ec71   Thumb Code    40  finsh_parser.o(.text)
    proc_param_list                          0x0800ec99   Thumb Code    76  finsh_parser.o(.text)
    proc_expr                                0x0800ece5   Thumb Code    12  finsh_parser.o(.text)
    proc_identifier                          0x0800ecf1   Thumb Code    44  finsh_parser.o(.text)
    proc_primary_expr                        0x0800ed1d   Thumb Code   158  finsh_parser.o(.text)
    proc_postfix_expr                        0x0800edbb   Thumb Code   162  finsh_parser.o(.text)
    proc_unary_expr                          0x0800ee5d   Thumb Code   190  finsh_parser.o(.text)
    proc_type                                0x0800ef1b   Thumb Code   250  finsh_parser.o(.text)
    proc_cast_expr                           0x0800f015   Thumb Code    78  finsh_parser.o(.text)
    proc_multiplicative_expr                 0x0800f063   Thumb Code   138  finsh_parser.o(.text)
    proc_additive_expr                       0x0800f0ed   Thumb Code   114  finsh_parser.o(.text)
    proc_shift_expr                          0x0800f15f   Thumb Code   116  finsh_parser.o(.text)
    proc_and_expr                            0x0800f1d3   Thumb Code    76  finsh_parser.o(.text)
    proc_exclusive_or_expr                   0x0800f21f   Thumb Code    76  finsh_parser.o(.text)
    proc_inclusive_or_expr                   0x0800f26b   Thumb Code    76  finsh_parser.o(.text)
    proc_assign_expr                         0x0800f2b7   Thumb Code    56  finsh_parser.o(.text)
    proc_variable_decl                       0x0800f2ef   Thumb Code   474  finsh_parser.o(.text)
    proc_expr_statement                      0x0800f4c9   Thumb Code    56  finsh_parser.o(.text)
    .text                                    0x0800f5ec   Section        0  finsh_var.o(.text)
    .text                                    0x0800f788   Section        0  finsh_vm.o(.text)
    .text                                    0x0800f86c   Section        0  finsh_token.o(.text)
    token_prev_char                          0x0800f881   Thumb Code    22  finsh_token.o(.text)
    token_next_char                          0x0800f897   Thumb Code    62  finsh_token.o(.text)
    token_spec_number                        0x0800f8d5   Thumb Code   152  finsh_token.o(.text)
    token_proc_number                        0x0800f96d   Thumb Code   288  finsh_token.o(.text)
    token_proc_escape                        0x0800fa8d   Thumb Code   214  finsh_token.o(.text)
    token_proc_string                        0x0800fb63   Thumb Code    80  finsh_token.o(.text)
    token_proc_char                          0x0800fbb3   Thumb Code   162  finsh_token.o(.text)
    token_match_name                         0x0800fc55   Thumb Code    48  finsh_token.o(.text)
    token_trim_space                         0x0800fcfd   Thumb Code    34  finsh_token.o(.text)
    token_run                                0x0800fd1f   Thumb Code   414  finsh_token.o(.text)
    .text                                    0x0800feec   Section        0  components.o(.text)
    rti_start                                0x0800feed   Thumb Code     4  components.o(.text)
    rti_board_start                          0x0800fef1   Thumb Code     4  components.o(.text)
    rti_board_end                            0x0800fef5   Thumb Code     4  components.o(.text)
    rti_end                                  0x0800fef9   Thumb Code     4  components.o(.text)
    .text                                    0x0800ff4c   Section        0  led.o(.text)
    .text                                    0x0800ffdc   Section        0  delay.o(.text)
    .text                                    0x08010064   Section        0  sys.o(.text)
    .text                                    0x08010128   Section        0  crc.o(.text)
    .text                                    0x08010184   Section        0  mcu_exit.o(.text)
    .text                                    0x080105e0   Section        0  mcu_gpio.o(.text)
    .text                                    0x080106e0   Section        0  mcu_rtc.o(.text)
    Rtc_nvic                                 0x0801075b   Thumb Code    34  mcu_rtc.o(.text)
    Rtc_set_config_flag                      0x0801077d   Thumb Code    14  mcu_rtc.o(.text)
    Rtc_config                               0x0801078b   Thumb Code   160  mcu_rtc.o(.text)
    Rtc_is_config                            0x0801082b   Thumb Code    22  mcu_rtc.o(.text)
    .text                                    0x080109f8   Section        0  mcu_softi2c.o(.text)
    .text                                    0x08010ed8   Section        0  mcu_spi.o(.text)
    .text                                    0x08011158   Section        0  mcp3421.o(.text)
    MCP3421_configReg                        0x08011159   Thumb Code    32  mcp3421.o(.text)
    .text                                    0x080112f0   Section        0  74hc165.o(.text)
    .text                                    0x08011388   Section        0  74hc595.o(.text)
    .text                                    0x080113f8   Section        0  w25qxx.o(.text)
    w25qxx_readID                            0x080113f9   Thumb Code    88  w25qxx.o(.text)
    w25qxx_cmd                               0x08011469   Thumb Code    20  w25qxx.o(.text)
    w25qxx_readSR                            0x0801147d   Thumb Code    36  w25qxx.o(.text)
    w25qxx_writeSR                           0x080114a1   Thumb Code    32  w25qxx.o(.text)
    .text                                    0x080117ec   Section        0  isl29125.o(.text)
    .text                                    0x08011b38   Section        0  ds18b20.o(.text)
    .text                                    0x08011cec   Section        0  l6480.o(.text)
    .text                                    0x08012188   Section        0  calendar.o(.text)
    .text                                    0x08012f68   Section        0  finsh_adc_1.o(.text)
    getAdcMean                               0x08012f69   Thumb Code   150  finsh_adc_1.o(.text)
    Get_Adc_Average                          0x08012fff   Thumb Code    50  finsh_adc_1.o(.text)
    .text                                    0x080130dc   Section        0  finsh_eeprom.o(.text)
    at24lc04_reads                           0x080130dd   Thumb Code   192  finsh_eeprom.o(.text)
    at24lc04_writes                          0x0801319d   Thumb Code   170  finsh_eeprom.o(.text)
    .text                                    0x0801334c   Section        0  finsh_flash_1.o(.text)
    Flash_read                               0x080133a7   Thumb Code   104  finsh_flash_1.o(.text)
    .text                                    0x08013428   Section        0  finsh_l6480_1.o(.text)
    .text                                    0x080137dc   Section        0  finsh_logic.o(.text)
    readPin                                  0x080137dd   Thumb Code   304  finsh_logic.o(.text)
    writePin                                 0x08013a31   Thumb Code   392  finsh_logic.o(.text)
    writePins                                0x08013bb9   Thumb Code   392  finsh_logic.o(.text)
    .text                                    0x08013d64   Section        0  finsh_rgb_sensor_1.o(.text)
    .text                                    0x08013e58   Section        0  finsh_rtc_1.o(.text)
    .text                                    0x08014088   Section        0  finsh_test.o(.text)
    .text                                    0x080140ec   Section        0  finsh_temp_sensor.o(.text)
    .text                                    0x08014128   Section        0  at24cxx.o(.text)
    .text                                    0x080143e4   Section        0  memcpya.o(.text)
    .text                                    0x08014408   Section        0  memseta.o(.text)
    .text                                    0x0801442c   Section        0  strncpy.o(.text)
    .text                                    0x08014444   Section        0  strlen.o(.text)
    .text                                    0x08014452   Section        0  strcmp.o(.text)
    .text                                    0x0801446e   Section        0  strncmp.o(.text)
    .text                                    0x0801448c   Section        0  atoi.o(.text)
    .text                                    0x080144a6   Section        0  fmul.o(.text)
    .text                                    0x0801450a   Section        0  dadd.o(.text)
    .text                                    0x08014658   Section        0  dmul.o(.text)
    .text                                    0x0801473c   Section        0  ddiv.o(.text)
    .text                                    0x0801481a   Section        0  ffltui.o(.text)
    .text                                    0x08014824   Section        0  dflti.o(.text)
    .text                                    0x08014846   Section        0  dfltui.o(.text)
    .text                                    0x08014860   Section        0  f2d.o(.text)
    .text                                    0x08014886   Section        0  d2f.o(.text)
    .text                                    0x080148be   Section        0  uidiv.o(.text)
    .text                                    0x080148ea   Section        0  uldiv.o(.text)
    .text                                    0x0801494c   Section        0  llshl.o(.text)
    .text                                    0x0801496a   Section        0  llushr.o(.text)
    .text                                    0x0801498a   Section        0  llsshr.o(.text)
    .text                                    0x080149ae   Section        0  strtol.o(.text)
    .text                                    0x08014a1e   Section        0  fepilogue.o(.text)
    .text                                    0x08014a1e   Section        0  iusefp.o(.text)
    .text                                    0x08014a8c   Section        0  depilogue.o(.text)
    .text                                    0x08014b46   Section        0  dfixul.o(.text)
    .text                                    0x08014b78   Section       48  cdrcmple.o(.text)
    .text                                    0x08014ba8   Section       36  init.o(.text)
    .text                                    0x08014bcc   Section        0  ctype_o.o(.text)
    .text                                    0x08014bd4   Section        0  _strtoul.o(.text)
    .text                                    0x08014c72   Section        0  _chval.o(.text)
    .text                                    0x08014c8e   Section        0  __dczerorl2.o(.text)
    i.__0sprintf                             0x08014ce4   Section        0  printfa.o(i.__0sprintf)
    i.__aeabi_errno_addr                     0x08014d0c   Section        0  errno.o(i.__aeabi_errno_addr)
    i.__scatterload_copy                     0x08014d14   Section       14  handlers.o(i.__scatterload_copy)
    i.__scatterload_null                     0x08014d22   Section        2  handlers.o(i.__scatterload_null)
    i.__scatterload_zeroinit                 0x08014d24   Section       14  handlers.o(i.__scatterload_zeroinit)
    i._fp_digits                             0x08014d34   Section        0  printfa.o(i._fp_digits)
    _fp_digits                               0x08014d35   Thumb Code   366  printfa.o(i._fp_digits)
    i._printf_core                           0x08014eb8   Section        0  printfa.o(i._printf_core)
    _printf_core                             0x08014eb9   Thumb Code  1744  printfa.o(i._printf_core)
    i._printf_post_padding                   0x08015594   Section        0  printfa.o(i._printf_post_padding)
    _printf_post_padding                     0x08015595   Thumb Code    36  printfa.o(i._printf_post_padding)
    i._printf_pre_padding                    0x080155b8   Section        0  printfa.o(i._printf_pre_padding)
    _printf_pre_padding                      0x080155b9   Thumb Code    46  printfa.o(i._printf_pre_padding)
    i._sputc                                 0x080155e6   Section        0  printfa.o(i._sputc)
    _sputc                                   0x080155e7   Thumb Code    10  printfa.o(i._sputc)
    .constdata                               0x080155f0   Section       92  usart.o(.constdata)
    stm32_uart_ops                           0x080155f0   Data          20  usart.o(.constdata)
    __FUNCTION__                             0x08015604   Data          16  usart.o(.constdata)
    __FUNCTION__                             0x08015614   Data          14  usart.o(.constdata)
    __FUNCTION__                             0x08015622   Data          11  usart.o(.constdata)
    __FUNCTION__                             0x0801562d   Data          11  usart.o(.constdata)
    __FUNCTION__                             0x08015638   Data           9  usart.o(.constdata)
    .constdata                               0x0801564c   Section      168  device.o(.constdata)
    __FUNCTION__                             0x0801564c   Data          21  device.o(.constdata)
    __FUNCTION__                             0x08015661   Data          15  device.o(.constdata)
    __FUNCTION__                             0x08015670   Data          15  device.o(.constdata)
    __FUNCTION__                             0x0801567f   Data          16  device.o(.constdata)
    __FUNCTION__                             0x0801568f   Data          15  device.o(.constdata)
    __FUNCTION__                             0x0801569e   Data          16  device.o(.constdata)
    __FUNCTION__                             0x080156ae   Data          18  device.o(.constdata)
    __FUNCTION__                             0x080156c0   Data          26  device.o(.constdata)
    __FUNCTION__                             0x080156da   Data          26  device.o(.constdata)
    .constdata                               0x080156f4   Section       22  idle.o(.constdata)
    __FUNCTION__                             0x080156f4   Data          22  idle.o(.constdata)
    .constdata                               0x0801570a   Section      471  ipc.o(.constdata)
    __FUNCTION__                             0x0801570a   Data          12  ipc.o(.constdata)
    __FUNCTION__                             0x08015716   Data          14  ipc.o(.constdata)
    __FUNCTION__                             0x08015724   Data          14  ipc.o(.constdata)
    __FUNCTION__                             0x08015732   Data          14  ipc.o(.constdata)
    __FUNCTION__                             0x08015740   Data          12  ipc.o(.constdata)
    __FUNCTION__                             0x0801574c   Data          15  ipc.o(.constdata)
    __FUNCTION__                             0x0801575b   Data          14  ipc.o(.constdata)
    __FUNCTION__                             0x08015769   Data          16  ipc.o(.constdata)
    __FUNCTION__                             0x08015779   Data          16  ipc.o(.constdata)
    __FUNCTION__                             0x08015789   Data          16  ipc.o(.constdata)
    __FUNCTION__                             0x08015799   Data          14  ipc.o(.constdata)
    __FUNCTION__                             0x080157a7   Data          17  ipc.o(.constdata)
    __FUNCTION__                             0x080157b8   Data          14  ipc.o(.constdata)
    __FUNCTION__                             0x080157c6   Data          16  ipc.o(.constdata)
    __FUNCTION__                             0x080157d6   Data          16  ipc.o(.constdata)
    __FUNCTION__                             0x080157e6   Data          16  ipc.o(.constdata)
    __FUNCTION__                             0x080157f6   Data          14  ipc.o(.constdata)
    __FUNCTION__                             0x08015804   Data          14  ipc.o(.constdata)
    __FUNCTION__                             0x08015812   Data          17  ipc.o(.constdata)
    __FUNCTION__                             0x08015823   Data          11  ipc.o(.constdata)
    __FUNCTION__                             0x0801582e   Data          13  ipc.o(.constdata)
    __FUNCTION__                             0x0801583b   Data          13  ipc.o(.constdata)
    __FUNCTION__                             0x08015848   Data          13  ipc.o(.constdata)
    __FUNCTION__                             0x08015855   Data          16  ipc.o(.constdata)
    __FUNCTION__                             0x08015865   Data          11  ipc.o(.constdata)
    __FUNCTION__                             0x08015870   Data          14  ipc.o(.constdata)
    __FUNCTION__                             0x0801587e   Data          11  ipc.o(.constdata)
    __FUNCTION__                             0x08015889   Data          13  ipc.o(.constdata)
    __FUNCTION__                             0x08015896   Data          13  ipc.o(.constdata)
    __FUNCTION__                             0x080158a3   Data          13  ipc.o(.constdata)
    __FUNCTION__                             0x080158b0   Data          11  ipc.o(.constdata)
    __FUNCTION__                             0x080158bb   Data          13  ipc.o(.constdata)
    __FUNCTION__                             0x080158c8   Data          11  ipc.o(.constdata)
    __FUNCTION__                             0x080158d3   Data          14  ipc.o(.constdata)
    .constdata                               0x080158e1   Section      290  kservice.o(.constdata)
    small_digits                             0x080159e1   Data          17  kservice.o(.constdata)
    large_digits                             0x080159f2   Data          17  kservice.o(.constdata)
    .constdata                               0x08015a03   Section       70  mem.o(.constdata)
    __FUNCTION__                             0x08015a03   Data          11  mem.o(.constdata)
    __FUNCTION__                             0x08015a0e   Data          20  mem.o(.constdata)
    __FUNCTION__                             0x08015a22   Data          10  mem.o(.constdata)
    __FUNCTION__                             0x08015a2c   Data          11  mem.o(.constdata)
    __FUNCTION__                             0x08015a37   Data          10  mem.o(.constdata)
    __FUNCTION__                             0x08015a41   Data           8  mem.o(.constdata)
    .constdata                               0x08015a49   Section       94  object.o(.constdata)
    __FUNCTION__                             0x08015a49   Data          17  object.o(.constdata)
    __FUNCTION__                             0x08015a5a   Data          19  object.o(.constdata)
    __FUNCTION__                             0x08015a6d   Data          17  object.o(.constdata)
    __FUNCTION__                             0x08015a7e   Data          26  object.o(.constdata)
    __FUNCTION__                             0x08015a98   Data          15  object.o(.constdata)
    .constdata                               0x08015aa7   Section       78  scheduler.o(.constdata)
    __FUNCTION__                             0x08015aa7   Data          26  scheduler.o(.constdata)
    __FUNCTION__                             0x08015ac1   Data          26  scheduler.o(.constdata)
    __FUNCTION__                             0x08015adb   Data          26  scheduler.o(.constdata)
    .constdata                               0x08015af5   Section      170  thread.o(.constdata)
    __FUNCTION__                             0x08015af5   Data          16  thread.o(.constdata)
    __FUNCTION__                             0x08015b05   Data          15  thread.o(.constdata)
    __FUNCTION__                             0x08015b14   Data          18  thread.o(.constdata)
    __FUNCTION__                             0x08015b26   Data          17  thread.o(.constdata)
    __FUNCTION__                             0x08015b37   Data          17  thread.o(.constdata)
    __FUNCTION__                             0x08015b48   Data          16  thread.o(.constdata)
    __FUNCTION__                             0x08015b58   Data          18  thread.o(.constdata)
    __FUNCTION__                             0x08015b6a   Data          18  thread.o(.constdata)
    __FUNCTION__                             0x08015b7c   Data          17  thread.o(.constdata)
    __FUNCTION__                             0x08015b8d   Data          18  thread.o(.constdata)
    .constdata                               0x08015b9f   Section       92  timer.o(.constdata)
    __FUNCTION__                             0x08015b9f   Data          14  timer.o(.constdata)
    __FUNCTION__                             0x08015bad   Data          16  timer.o(.constdata)
    __FUNCTION__                             0x08015bbd   Data          16  timer.o(.constdata)
    __FUNCTION__                             0x08015bcd   Data          15  timer.o(.constdata)
    __FUNCTION__                             0x08015bdc   Data          14  timer.o(.constdata)
    __FUNCTION__                             0x08015bea   Data          17  timer.o(.constdata)
    .constdata                               0x08015bfb   Section       19  cpuport.o(.constdata)
    __FUNCTION__                             0x08015bfb   Data          19  cpuport.o(.constdata)
    .constdata                               0x08015c0e   Section      292  serial.o(.constdata)
    __FUNCTION__                             0x08015c0e   Data          16  serial.o(.constdata)
    __FUNCTION__                             0x08015c1e   Data          16  serial.o(.constdata)
    __FUNCTION__                             0x08015c2e   Data          15  serial.o(.constdata)
    __FUNCTION__                             0x08015c3d   Data          15  serial.o(.constdata)
    __FUNCTION__                             0x08015c4c   Data          23  serial.o(.constdata)
    __FUNCTION__                             0x08015c63   Data          29  serial.o(.constdata)
    __FUNCTION__                             0x08015c80   Data          29  serial.o(.constdata)
    __FUNCTION__                             0x08015c9d   Data          15  serial.o(.constdata)
    __FUNCTION__                             0x08015cac   Data          15  serial.o(.constdata)
    __FUNCTION__                             0x08015cbb   Data          15  serial.o(.constdata)
    __FUNCTION__                             0x08015cca   Data          16  serial.o(.constdata)
    __FUNCTION__                             0x08015cda   Data          15  serial.o(.constdata)
    __FUNCTION__                             0x08015ce9   Data          16  serial.o(.constdata)
    __FUNCTION__                             0x08015cf9   Data          18  serial.o(.constdata)
    __FUNCTION__                             0x08015d0b   Data          22  serial.o(.constdata)
    __FUNCTION__                             0x08015d21   Data          17  serial.o(.constdata)
    .constdata                               0x08015d32   Section       57  completion.o(.constdata)
    __FUNCTION__                             0x08015d32   Data          19  completion.o(.constdata)
    __FUNCTION__                             0x08015d45   Data          19  completion.o(.constdata)
    __FUNCTION__                             0x08015d58   Data          19  completion.o(.constdata)
    .constdata                               0x08015d6b   Section       75  dataqueue.o(.constdata)
    __FUNCTION__                             0x08015d6b   Data          19  dataqueue.o(.constdata)
    __FUNCTION__                             0x08015d7e   Data          19  dataqueue.o(.constdata)
    __FUNCTION__                             0x08015d91   Data          18  dataqueue.o(.constdata)
    __FUNCTION__                             0x08015da3   Data          19  dataqueue.o(.constdata)
    .constdata                               0x08015db6   Section      151  can.o(.constdata)
    __FUNCTION__                             0x08015db6   Data          12  can.o(.constdata)
    __FUNCTION__                             0x08015dc2   Data          12  can.o(.constdata)
    __FUNCTION__                             0x08015dce   Data          12  can.o(.constdata)
    __FUNCTION__                             0x08015dda   Data          17  can.o(.constdata)
    __FUNCTION__                             0x08015deb   Data          12  can.o(.constdata)
    __FUNCTION__                             0x08015df7   Data          13  can.o(.constdata)
    __FUNCTION__                             0x08015e04   Data          12  can.o(.constdata)
    __FUNCTION__                             0x08015e10   Data          13  can.o(.constdata)
    __FUNCTION__                             0x08015e1d   Data          15  can.o(.constdata)
    __FUNCTION__                             0x08015e2c   Data          19  can.o(.constdata)
    __FUNCTION__                             0x08015e3f   Data          14  can.o(.constdata)
    .constdata                               0x08015e4d   Section       96  shell.o(.constdata)
    __FUNCTION__                             0x08015e4d   Data          13  shell.o(.constdata)
    __FUNCTION__                             0x08015e5a   Data          17  shell.o(.constdata)
    __FUNCTION__                             0x08015e6b   Data          17  shell.o(.constdata)
    __FUNCTION__                             0x08015e7c   Data          15  shell.o(.constdata)
    __FUNCTION__                             0x08015e8b   Data          15  shell.o(.constdata)
    __FUNCTION__                             0x08015e9a   Data          19  shell.o(.constdata)
    .constdata                               0x08015eb0   Section       80  cmd.o(.constdata)
    .constdata                               0x08015f00   Section      196  finsh_ops.o(.constdata)
    .constdata                               0x08015fc4   Section       64  finsh_token.o(.constdata)
    finsh_name_table                         0x08015fc4   Data          64  finsh_token.o(.constdata)
    .constdata                               0x08016004   Section      768  crc.o(.constdata)
    aucCRCHi                                 0x08016004   Data         256  crc.o(.constdata)
    aucCRCLo                                 0x08016104   Data         256  crc.o(.constdata)
    .constdata                               0x08016304   Section      160  at24cxx.o(.constdata)
    .constdata                               0x080163a4   Section      129  ctype_o.o(.constdata)
    .constdata                               0x08016428   Section        4  ctype_o.o(.constdata)
    table                                    0x08016428   Data           4  ctype_o.o(.constdata)
    .conststring                             0x0801642c   Section       77  misc.o(.conststring)
    .conststring                             0x0801647c   Section       86  stm32f10x_bkp.o(.conststring)
    .conststring                             0x080164d4   Section       86  stm32f10x_dma.o(.conststring)
    .conststring                             0x0801652c   Section       87  stm32f10x_exti.o(.conststring)
    .conststring                             0x08016584   Section       87  stm32f10x_gpio.o(.conststring)
    .conststring                             0x080165dc   Section       86  stm32f10x_pwr.o(.conststring)
    .conststring                             0x08016634   Section       86  stm32f10x_rcc.o(.conststring)
    .conststring                             0x0801668c   Section       86  stm32f10x_rtc.o(.conststring)
    .conststring                             0x080166e4   Section       86  stm32f10x_spi.o(.conststring)
    .conststring                             0x0801673c   Section       88  stm32f10x_usart.o(.conststring)
    .conststring                             0x08016794   Section      237  mem.o(.conststring)
    .conststring                             0x08016884   Section      470  can.o(.conststring)
    .conststring                             0x08016a5c   Section      349  cmd.o(.conststring)
    .conststring                             0x08016bbc   Section      243  finsh_error.o(.conststring)
    .conststring                             0x08016cb0   Section       62  finsh_token.o(.conststring)
    .rodata.name                             0x08016cee   Section       39  mem.o(.rodata.name)
    .rodata.name                             0x08016d15   Section       38  can.o(.rodata.name)
    .rodata.name                             0x08016d3b   Section      435  cmd.o(.rodata.name)
    .rodata.name                             0x08016eee   Section       33  led.o(.rodata.name)
    .rodata.name                             0x08016f0f   Section       31  finsh_adc_1.o(.rodata.name)
    .rodata.name                             0x08016f2e   Section       82  finsh_eeprom.o(.rodata.name)
    .rodata.name                             0x08016f80   Section       80  finsh_flash_1.o(.rodata.name)
    .rodata.name                             0x08016fd0   Section       47  finsh_l6480_1.o(.rodata.name)
    .rodata.name                             0x08016fff   Section      178  finsh_logic.o(.rodata.name)
    .rodata.name                             0x080170b1   Section       34  finsh_rgb_sensor_1.o(.rodata.name)
    .rodata.name                             0x080170d3   Section       39  finsh_rtc_1.o(.rodata.name)
    .rodata.name                             0x080170fa   Section       13  finsh_test.o(.rodata.name)
    .rodata.name                             0x08017107   Section       11  finsh_temp_sensor.o(.rodata.name)
    .rti_fn.0                                0x08017114   Section        4  components.o(.rti_fn.0)
    .rti_fn.0.end                            0x08017118   Section        4  components.o(.rti_fn.0.end)
    .rti_fn.1.end                            0x0801711c   Section        4  components.o(.rti_fn.1.end)
    .rti_fn.3                                0x08017120   Section        4  shell.o(.rti_fn.3)
    .rti_fn.6.end                            0x08017124   Section        4  components.o(.rti_fn.6.end)
    FSymTab                                  0x08017128   Section       12  mem.o(FSymTab)
    FSymTab                                  0x08017134   Section       12  can.o(FSymTab)
    FSymTab                                  0x08017140   Section      144  cmd.o(FSymTab)
    FSymTab                                  0x080171d0   Section       12  led.o(FSymTab)
    FSymTab                                  0x080171dc   Section       12  finsh_adc_1.o(FSymTab)
    FSymTab                                  0x080171e8   Section       36  finsh_eeprom.o(FSymTab)
    FSymTab                                  0x0801720c   Section       24  finsh_flash_1.o(FSymTab)
    FSymTab                                  0x08017224   Section       84  finsh_l6480_1.o(FSymTab)
    FSymTab                                  0x08017278   Section       48  finsh_logic.o(FSymTab)
    FSymTab                                  0x080172a8   Section       24  finsh_rgb_sensor_1.o(FSymTab)
    FSymTab                                  0x080172c0   Section       36  finsh_rtc_1.o(FSymTab)
    FSymTab                                  0x080172e4   Section       12  finsh_test.o(FSymTab)
    FSymTab                                  0x080172f0   Section       12  finsh_temp_sensor.o(FSymTab)
    VSymTab                                  0x0801731c   Section       16  cmd.o(VSymTab)
    .data                                    0x20000000   Section       24  usart.o(.data)
    .data                                    0x20000018   Section       20  system_stm32f10x.o(.data)
    .data                                    0x2000002c   Section       20  stm32f10x_rcc.o(.data)
    APBAHBPrescTable                         0x2000002c   Data          16  stm32f10x_rcc.o(.data)
    ADCPrescTable                            0x2000003c   Data           4  stm32f10x_rcc.o(.data)
    .data                                    0x20000040   Section        4  clock.o(.data)
    rt_tick                                  0x20000040   Data           4  clock.o(.data)
    .data                                    0x20000044   Section        4  idle.o(.data)
    rt_thread_idle_hook                      0x20000044   Data           4  idle.o(.data)
    .data                                    0x20000048   Section        9  irq.o(.data)
    rt_interrupt_enter_hook                  0x20000048   Data           4  irq.o(.data)
    rt_interrupt_leave_hook                  0x2000004c   Data           4  irq.o(.data)
    .data                                    0x20000054   Section       12  kservice.o(.data)
    _errno                                   0x20000054   Data           4  kservice.o(.data)
    _console_device                          0x20000058   Data           4  kservice.o(.data)
    .data                                    0x20000060   Section       32  mem.o(.data)
    rt_malloc_hook                           0x20000060   Data           4  mem.o(.data)
    rt_free_hook                             0x20000064   Data           4  mem.o(.data)
    heap_ptr                                 0x20000068   Data           4  mem.o(.data)
    heap_end                                 0x2000006c   Data           4  mem.o(.data)
    lfree                                    0x20000070   Data           4  mem.o(.data)
    mem_size_aligned                         0x20000074   Data           4  mem.o(.data)
    used_mem                                 0x20000078   Data           4  mem.o(.data)
    max_mem                                  0x2000007c   Data           4  mem.o(.data)
    .data                                    0x20000080   Section      164  object.o(.data)
    rt_object_attach_hook                    0x20000110   Data           4  object.o(.data)
    rt_object_detach_hook                    0x20000114   Data           4  object.o(.data)
    .data                                    0x20000124   Section       28  scheduler.o(.data)
    rt_scheduler_lock_nest                   0x20000124   Data           2  scheduler.o(.data)
    rt_scheduler_hook                        0x2000013c   Data           4  scheduler.o(.data)
    .data                                    0x20000140   Section       12  thread.o(.data)
    rt_thread_suspend_hook                   0x20000140   Data           4  thread.o(.data)
    rt_thread_resume_hook                    0x20000144   Data           4  thread.o(.data)
    rt_thread_inited_hook                    0x20000148   Data           4  thread.o(.data)
    .data                                    0x2000014c   Section       16  timer.o(.data)
    rt_timer_list                            0x2000014c   Data           8  timer.o(.data)
    rt_timer_timeout_hook                    0x20000154   Data           4  timer.o(.data)
    random_nr                                0x20000158   Data           4  timer.o(.data)
    .data                                    0x2000015c   Section       16  cpuport.o(.data)
    rt_exception_hook                        0x20000168   Data           4  cpuport.o(.data)
    .data                                    0x2000016c   Section       16  can.o(.data)
    ErrCode                                  0x2000016c   Data          16  can.o(.data)
    .data                                    0x2000017c   Section        4  shell.o(.data)
    .data                                    0x20000180   Section       16  symbol.o(.data)
    .data                                    0x20000190   Section        4  cmd.o(.data)
    dummy                                    0x20000190   Data           4  cmd.o(.data)
    .data                                    0x20000194   Section        8  finsh_compiler.o(.data)
    .data                                    0x2000019c   Section       64  finsh_error.o(.data)
    finsh_error_string_table                 0x200001a0   Data          60  finsh_error.o(.data)
    .data                                    0x200001dc   Section        8  finsh_heap.o(.data)
    free_list                                0x200001dc   Data           4  finsh_heap.o(.data)
    allocate_list                            0x200001e0   Data           4  finsh_heap.o(.data)
    .data                                    0x200001e4   Section        4  finsh_var.o(.data)
    .data                                    0x200001e8   Section       12  finsh_vm.o(.data)
    .data                                    0x200001f4   Section        1  led.o(.data)
    led_inited                               0x200001f4   Data           1  led.o(.data)
    .data                                    0x200001f8   Section       80  mcu_exit.o(.data)
    port_source                              0x200001f8   Data           1  mcu_exit.o(.data)
    pin_source                               0x200001f9   Data           1  mcu_exit.o(.data)
    exti_line                                0x200001fc   Data           4  mcu_exit.o(.data)
    irq                                      0x20000200   Data           1  mcu_exit.o(.data)
    .data                                    0x20000248   Section      896  mcu_gpio.o(.data)
    .data                                    0x200005c8   Section       12  mcu_rtc.o(.data)
    .data                                    0x200005d4   Section       12  mcu_softi2c.o(.data)
    .data                                    0x200005e0   Section        8  mcu_spi.o(.data)
    .data                                    0x200005e8   Section        5  mcp3421.o(.data)
    .data                                    0x200005f0   Section       28  74hc165.o(.data)
    .data                                    0x2000060c   Section       28  74hc595.o(.data)
    .data                                    0x20000628   Section       40  w25qxx.o(.data)
    .data                                    0x20000650   Section       13  finsh_adc_1.o(.data)
    MCP3421_inited                           0x2000065c   Data           1  finsh_adc_1.o(.data)
    .data                                    0x20000660   Section       40  finsh_eeprom.o(.data)
    at24lc04_Inited                          0x20000668   Data           1  finsh_eeprom.o(.data)
    .data                                    0x20000688   Section       17  finsh_flash_1.o(.data)
    w25q32_Inited                            0x20000698   Data           1  finsh_flash_1.o(.data)
    .data                                    0x2000069c   Section       32  finsh_l6480_1.o(.data)
    .data                                    0x200006bc   Section        3  finsh_logic.o(.data)
    input_Inited                             0x200006bd   Data           1  finsh_logic.o(.data)
    output_Inited                            0x200006be   Data           1  finsh_logic.o(.data)
    .data                                    0x200006c0   Section       27  finsh_rgb_sensor_1.o(.data)
    .data                                    0x200006dc   Section       40  finsh_rtc_1.o(.data)
    .data                                    0x20000704   Section       16  finsh_test.o(.data)
    .data                                    0x20000714   Section       20  at24cxx.o(.data)
    .data                                    0x20000728   Section        4  errno.o(.data)
    _errno                                   0x20000728   Data           4  errno.o(.data)
    .bss                                     0x2000072c   Section      640  application.o(.bss)
    led_stack                                0x2000072c   Data         512  application.o(.bss)
    led_thread                               0x2000092c   Data         128  application.o(.bss)
    .bss                                     0x200009ac   Section       84  usart.o(.bss)
    .bss                                     0x20000a00   Section      384  idle.o(.bss)
    idle                                     0x20000a00   Data         128  idle.o(.bss)
    rt_thread_stack                          0x20000a80   Data         256  idle.o(.bss)
    .bss                                     0x20000b80   Section      128  kservice.o(.bss)
    rt_log_buf                               0x20000b80   Data         128  kservice.o(.bss)
    .bss                                     0x20000c00   Section       32  mem.o(.bss)
    heap_sem                                 0x20000c00   Data          32  mem.o(.bss)
    .bss                                     0x20000c20   Section      256  scheduler.o(.bss)
    .bss                                     0x20000d20   Section     2176  shell.o(.bss)
    finsh_thread                             0x20000d20   Data         128  shell.o(.bss)
    finsh_thread_stack                       0x20000da0   Data        2048  shell.o(.bss)
    .bss                                     0x200015a0   Section      128  finsh_heap.o(.bss)
    .bss                                     0x20001620   Section      320  finsh_node.o(.bss)
    .bss                                     0x20001760   Section      192  finsh_var.o(.bss)
    .bss                                     0x20001820   Section      384  finsh_vm.o(.bss)
    .bss                                     0x200019a0   Section     4096  w25qxx.o(.bss)
    .bss                                     0x200029a0   Section       53  calendar.o(.bss)
    .bss                                     0x200029d6   Section       20  finsh_adc_1.o(.bss)
    .bss                                     0x200029ec   Section      156  finsh_l6480_1.o(.bss)
    .bss                                     0x20002a88   Section       16  finsh_logic.o(.bss)
    .bss                                     0x20002a98   Section       12  finsh_rgb_sensor_1.o(.bss)
    STACK                                    0x20002aa8   Section     1024  startup_stm32f10x_hd.o(STACK)

    Global Symbols

    Symbol Name                              Value     Ov Type        Size  Object(Section)

    BuildAttributes$$THM_ISAv4$P$D$K$B$S$PE$A:L22UL41UL21$X:L11$S22US41US21$IEEE1$IW$USESV6$~STKCKD$USESV7$~SHL$OTIME$ROPI$IEEEX$EBA8$MICROLIB$REQ8$PRES8$EABIv2 0x00000000   Number         0  anon$$obj.o ABSOLUTE
    __ARM_use_no_argv                        0x00000000   Number         0  startup.o ABSOLUTE
    _printf_a                                0x00000000   Number         0  stubs.o ABSOLUTE
    _printf_c                                0x00000000   Number         0  stubs.o ABSOLUTE
    _printf_charcount                        0x00000000   Number         0  stubs.o ABSOLUTE
    _printf_d                                0x00000000   Number         0  stubs.o ABSOLUTE
    _printf_e                                0x00000000   Number         0  stubs.o ABSOLUTE
    _printf_f                                0x00000000   Number         0  stubs.o ABSOLUTE
    _printf_flags                            0x00000000   Number         0  stubs.o ABSOLUTE
    _printf_fp_dec                           0x00000000   Number         0  stubs.o ABSOLUTE
    _printf_fp_hex                           0x00000000   Number         0  stubs.o ABSOLUTE
    _printf_g                                0x00000000   Number         0  stubs.o ABSOLUTE
    _printf_i                                0x00000000   Number         0  stubs.o ABSOLUTE
    _printf_int_dec                          0x00000000   Number         0  stubs.o ABSOLUTE
    _printf_l                                0x00000000   Number         0  stubs.o ABSOLUTE
    _printf_lc                               0x00000000   Number         0  stubs.o ABSOLUTE
    _printf_ll                               0x00000000   Number         0  stubs.o ABSOLUTE
    _printf_lld                              0x00000000   Number         0  stubs.o ABSOLUTE
    _printf_lli                              0x00000000   Number         0  stubs.o ABSOLUTE
    _printf_llo                              0x00000000   Number         0  stubs.o ABSOLUTE
    _printf_llu                              0x00000000   Number         0  stubs.o ABSOLUTE
    _printf_llx                              0x00000000   Number         0  stubs.o ABSOLUTE
    _printf_longlong_dec                     0x00000000   Number         0  stubs.o ABSOLUTE
    _printf_longlong_hex                     0x00000000   Number         0  stubs.o ABSOLUTE
    _printf_longlong_oct                     0x00000000   Number         0  stubs.o ABSOLUTE
    _printf_ls                               0x00000000   Number         0  stubs.o ABSOLUTE
    _printf_mbtowc                           0x00000000   Number         0  stubs.o ABSOLUTE
    _printf_n                                0x00000000   Number         0  stubs.o ABSOLUTE
    _printf_o                                0x00000000   Number         0  stubs.o ABSOLUTE
    _printf_p                                0x00000000   Number         0  stubs.o ABSOLUTE
    _printf_percent                          0x00000000   Number         0  stubs.o ABSOLUTE
    _printf_pre_padding                      0x00000000   Number         0  stubs.o ABSOLUTE
    _printf_return_value                     0x00000000   Number         0  stubs.o ABSOLUTE
    _printf_s                                0x00000000   Number         0  stubs.o ABSOLUTE
    _printf_sizespec                         0x00000000   Number         0  stubs.o ABSOLUTE
    _printf_str                              0x00000000   Number         0  stubs.o ABSOLUTE
    _printf_truncate_signed                  0x00000000   Number         0  stubs.o ABSOLUTE
    _printf_truncate_unsigned                0x00000000   Number         0  stubs.o ABSOLUTE
    _printf_u                                0x00000000   Number         0  stubs.o ABSOLUTE
    _printf_wc                               0x00000000   Number         0  stubs.o ABSOLUTE
    _printf_wctomb                           0x00000000   Number         0  stubs.o ABSOLUTE
    _printf_widthprec                        0x00000000   Number         0  stubs.o ABSOLUTE
    _printf_x                                0x00000000   Number         0  stubs.o ABSOLUTE
    __cpp_initialize__aeabi_                  - Undefined Weak Reference
    __cxa_finalize                            - Undefined Weak Reference
    _clock_init                               - Undefined Weak Reference
    _microlib_exit                            - Undefined Weak Reference
    __Vectors_Size                           0x00000130   Number         0  startup_stm32f10x_hd.o ABSOLUTE
    __Vectors                                0x08000000   Data           4  startup_stm32f10x_hd.o(RESET)
    __Vectors_End                            0x08000130   Data           0  startup_stm32f10x_hd.o(RESET)
    __main                                   0x08000131   Thumb Code     0  entry.o(.ARM.Collect$$$$00000000)
    _main_stk                                0x08000131   Thumb Code     0  entry2.o(.ARM.Collect$$$$00000001)
    _main_scatterload                        0x08000135   Thumb Code     0  entry5.o(.ARM.Collect$$$$00000004)
    __main_after_scatterload                 0x08000139   Thumb Code     0  entry5.o(.ARM.Collect$$$$00000004)
    _main_clock                              0x08000139   Thumb Code     0  entry7b.o(.ARM.Collect$$$$00000008)
    _main_cpp_init                           0x08000139   Thumb Code     0  entry8b.o(.ARM.Collect$$$$0000000A)
    _main_init                               0x08000139   Thumb Code     0  entry9a.o(.ARM.Collect$$$$0000000B)
    __rt_final_cpp                           0x08000141   Thumb Code     0  entry10a.o(.ARM.Collect$$$$0000000D)
    __rt_final_exit                          0x08000141   Thumb Code     0  entry11a.o(.ARM.Collect$$$$0000000F)
    rt_init_thread_entry                     0x08000165   Thumb Code    10  application.o(.text)
    rt_application_init                      0x0800016f   Thumb Code    80  application.o(.text)
    assert_failed                            0x080001d9   Thumb Code    30  startup.o(.text)
    rtthread_startup                         0x080001f7   Thumb Code    44  startup.o(.text)
    main                                     0x08000223   Thumb Code    14  startup.o(.text)
    NVIC_Configuration                       0x08000289   Thumb Code    14  board.o(.text)
    SysTick_Handler                          0x08000297   Thumb Code    16  board.o(.text)
    rt_hw_board_init                         0x080002a7   Thumb Code   100  board.o(.text)
    NMI_Handler                              0x08000321   Thumb Code     2  stm32f10x_it.o(.text)
    MemManage_Handler                        0x08000323   Thumb Code     4  stm32f10x_it.o(.text)
    BusFault_Handler                         0x08000327   Thumb Code     4  stm32f10x_it.o(.text)
    UsageFault_Handler                       0x0800032b   Thumb Code     4  stm32f10x_it.o(.text)
    SVC_Handler                              0x0800032f   Thumb Code     2  stm32f10x_it.o(.text)
    DebugMon_Handler                         0x08000331   Thumb Code     2  stm32f10x_it.o(.text)
    USART1_IRQHandler                        0x0800068b   Thumb Code    18  usart.o(.text)
    DMA1_Channel5_IRQHandler                 0x0800069d   Thumb Code    18  usart.o(.text)
    rt_hw_usart_init                         0x0800076d   Thumb Code    64  usart.o(.text)
    SystemInit                               0x080008a3   Thumb Code    78  system_stm32f10x.o(.text)
    SystemCoreClockUpdate                    0x080008f1   Thumb Code   142  system_stm32f10x.o(.text)
    Reset_Handler                            0x080009ad   Thumb Code     8  startup_stm32f10x_hd.o(.text)
    ADC1_2_IRQHandler                        0x080009c7   Thumb Code     0  startup_stm32f10x_hd.o(.text)
    ADC3_IRQHandler                          0x080009c7   Thumb Code     0  startup_stm32f10x_hd.o(.text)
    CAN1_RX1_IRQHandler                      0x080009c7   Thumb Code     0  startup_stm32f10x_hd.o(.text)
    CAN1_SCE_IRQHandler                      0x080009c7   Thumb Code     0  startup_stm32f10x_hd.o(.text)
    DMA1_Channel1_IRQHandler                 0x080009c7   Thumb Code     0  startup_stm32f10x_hd.o(.text)
    DMA1_Channel2_IRQHandler                 0x080009c7   Thumb Code     0  startup_stm32f10x_hd.o(.text)
    DMA1_Channel3_IRQHandler                 0x080009c7   Thumb Code     0  startup_stm32f10x_hd.o(.text)
    DMA1_Channel4_IRQHandler                 0x080009c7   Thumb Code     0  startup_stm32f10x_hd.o(.text)
    DMA1_Channel6_IRQHandler                 0x080009c7   Thumb Code     0  startup_stm32f10x_hd.o(.text)
    DMA1_Channel7_IRQHandler                 0x080009c7   Thumb Code     0  startup_stm32f10x_hd.o(.text)
    DMA2_Channel1_IRQHandler                 0x080009c7   Thumb Code     0  startup_stm32f10x_hd.o(.text)
    DMA2_Channel2_IRQHandler                 0x080009c7   Thumb Code     0  startup_stm32f10x_hd.o(.text)
    DMA2_Channel3_IRQHandler                 0x080009c7   Thumb Code     0  startup_stm32f10x_hd.o(.text)
    DMA2_Channel4_5_IRQHandler               0x080009c7   Thumb Code     0  startup_stm32f10x_hd.o(.text)
    FLASH_IRQHandler                         0x080009c7   Thumb Code     0  startup_stm32f10x_hd.o(.text)
    FSMC_IRQHandler                          0x080009c7   Thumb Code     0  startup_stm32f10x_hd.o(.text)
    I2C1_ER_IRQHandler                       0x080009c7   Thumb Code     0  startup_stm32f10x_hd.o(.text)
    I2C1_EV_IRQHandler                       0x080009c7   Thumb Code     0  startup_stm32f10x_hd.o(.text)
    I2C2_ER_IRQHandler                       0x080009c7   Thumb Code     0  startup_stm32f10x_hd.o(.text)
    I2C2_EV_IRQHandler                       0x080009c7   Thumb Code     0  startup_stm32f10x_hd.o(.text)
    PVD_IRQHandler                           0x080009c7   Thumb Code     0  startup_stm32f10x_hd.o(.text)
    RCC_IRQHandler                           0x080009c7   Thumb Code     0  startup_stm32f10x_hd.o(.text)
    RTCAlarm_IRQHandler                      0x080009c7   Thumb Code     0  startup_stm32f10x_hd.o(.text)
    SDIO_IRQHandler                          0x080009c7   Thumb Code     0  startup_stm32f10x_hd.o(.text)
    SPI1_IRQHandler                          0x080009c7   Thumb Code     0  startup_stm32f10x_hd.o(.text)
    SPI2_IRQHandler                          0x080009c7   Thumb Code     0  startup_stm32f10x_hd.o(.text)
    SPI3_IRQHandler                          0x080009c7   Thumb Code     0  startup_stm32f10x_hd.o(.text)
    TAMPER_IRQHandler                        0x080009c7   Thumb Code     0  startup_stm32f10x_hd.o(.text)
    TIM1_BRK_IRQHandler                      0x080009c7   Thumb Code     0  startup_stm32f10x_hd.o(.text)
    TIM1_CC_IRQHandler                       0x080009c7   Thumb Code     0  startup_stm32f10x_hd.o(.text)
    TIM1_TRG_COM_IRQHandler                  0x080009c7   Thumb Code     0  startup_stm32f10x_hd.o(.text)
    TIM1_UP_IRQHandler                       0x080009c7   Thumb Code     0  startup_stm32f10x_hd.o(.text)
    TIM2_IRQHandler                          0x080009c7   Thumb Code     0  startup_stm32f10x_hd.o(.text)
    TIM3_IRQHandler                          0x080009c7   Thumb Code     0  startup_stm32f10x_hd.o(.text)
    TIM4_IRQHandler                          0x080009c7   Thumb Code     0  startup_stm32f10x_hd.o(.text)
    TIM5_IRQHandler                          0x080009c7   Thumb Code     0  startup_stm32f10x_hd.o(.text)
    TIM6_IRQHandler                          0x080009c7   Thumb Code     0  startup_stm32f10x_hd.o(.text)
    TIM7_IRQHandler                          0x080009c7   Thumb Code     0  startup_stm32f10x_hd.o(.text)
    TIM8_BRK_IRQHandler                      0x080009c7   Thumb Code     0  startup_stm32f10x_hd.o(.text)
    TIM8_CC_IRQHandler                       0x080009c7   Thumb Code     0  startup_stm32f10x_hd.o(.text)
    TIM8_TRG_COM_IRQHandler                  0x080009c7   Thumb Code     0  startup_stm32f10x_hd.o(.text)
    TIM8_UP_IRQHandler                       0x080009c7   Thumb Code     0  startup_stm32f10x_hd.o(.text)
    UART4_IRQHandler                         0x080009c7   Thumb Code     0  startup_stm32f10x_hd.o(.text)
    UART5_IRQHandler                         0x080009c7   Thumb Code     0  startup_stm32f10x_hd.o(.text)
    USART2_IRQHandler                        0x080009c7   Thumb Code     0  startup_stm32f10x_hd.o(.text)
    USART3_IRQHandler                        0x080009c7   Thumb Code     0  startup_stm32f10x_hd.o(.text)
    USBWakeUp_IRQHandler                     0x080009c7   Thumb Code     0  startup_stm32f10x_hd.o(.text)
    USB_HP_CAN1_TX_IRQHandler                0x080009c7   Thumb Code     0  startup_stm32f10x_hd.o(.text)
    USB_LP_CAN1_RX0_IRQHandler               0x080009c7   Thumb Code     0  startup_stm32f10x_hd.o(.text)
    WWDG_IRQHandler                          0x080009c7   Thumb Code     0  startup_stm32f10x_hd.o(.text)
    NVIC_PriorityGroupConfig                 0x080009d1   Thumb Code    54  misc.o(.text)
    NVIC_Init                                0x08000a07   Thumb Code   158  misc.o(.text)
    NVIC_SetVectorTable                      0x08000aa5   Thumb Code    60  misc.o(.text)
    NVIC_SystemLPConfig                      0x08000ae1   Thumb Code    78  misc.o(.text)
    SysTick_CLKSourceConfig                  0x08000b2f   Thumb Code    62  misc.o(.text)
    BKP_DeInit                               0x08000b89   Thumb Code    16  stm32f10x_bkp.o(.text)
    BKP_TamperPinLevelConfig                 0x08000b99   Thumb Code    26  stm32f10x_bkp.o(.text)
    BKP_TamperPinCmd                         0x08000bb3   Thumb Code    28  stm32f10x_bkp.o(.text)
    BKP_ITConfig                             0x08000bcf   Thumb Code    28  stm32f10x_bkp.o(.text)
    BKP_RTCOutputConfig                      0x08000beb   Thumb Code    52  stm32f10x_bkp.o(.text)
    BKP_SetRTCCalibrationValue               0x08000c1f   Thumb Code    38  stm32f10x_bkp.o(.text)
    BKP_WriteBackupRegister                  0x08000c45   Thumb Code   206  stm32f10x_bkp.o(.text)
    BKP_ReadBackupRegister                   0x08000d13   Thumb Code   204  stm32f10x_bkp.o(.text)
    BKP_GetFlagStatus                        0x08000ddf   Thumb Code    10  stm32f10x_bkp.o(.text)
    BKP_ClearFlag                            0x08000de9   Thumb Code    18  stm32f10x_bkp.o(.text)
    BKP_GetITStatus                          0x08000dfb   Thumb Code    10  stm32f10x_bkp.o(.text)
    BKP_ClearITPendingBit                    0x08000e05   Thumb Code    18  stm32f10x_bkp.o(.text)
    DMA_DeInit                               0x08000e25   Thumb Code   430  stm32f10x_dma.o(.text)
    DMA_Init                                 0x08000fd3   Thumb Code   388  stm32f10x_dma.o(.text)
    DMA_StructInit                           0x08001157   Thumb Code    26  stm32f10x_dma.o(.text)
    DMA_Cmd                                  0x08001171   Thumb Code   164  stm32f10x_dma.o(.text)
    DMA_ITConfig                             0x08001215   Thumb Code   168  stm32f10x_dma.o(.text)
    DMA_SetCurrDataCounter                   0x080012bd   Thumb Code   114  stm32f10x_dma.o(.text)
    DMA_GetCurrDataCounter                   0x0800132f   Thumb Code   114  stm32f10x_dma.o(.text)
    DMA_GetFlagStatus                        0x080013a1   Thumb Code   344  stm32f10x_dma.o(.text)
    DMA_ClearFlag                            0x080014f9   Thumb Code    52  stm32f10x_dma.o(.text)
    DMA_GetITStatus                          0x0800152d   Thumb Code   398  stm32f10x_dma.o(.text)
    DMA_ClearITPendingBit                    0x080016bb   Thumb Code    50  stm32f10x_dma.o(.text)
    EXTI_DeInit                              0x0800171d   Thumb Code    28  stm32f10x_exti.o(.text)
    EXTI_Init                                0x08001739   Thumb Code   236  stm32f10x_exti.o(.text)
    EXTI_StructInit                          0x08001825   Thumb Code    16  stm32f10x_exti.o(.text)
    EXTI_GenerateSWInterrupt                 0x08001835   Thumb Code    38  stm32f10x_exti.o(.text)
    EXTI_GetFlagStatus                       0x0800185b   Thumb Code   140  stm32f10x_exti.o(.text)
    EXTI_ClearFlag                           0x080018e7   Thumb Code    30  stm32f10x_exti.o(.text)
    EXTI_GetITStatus                         0x08001905   Thumb Code   152  stm32f10x_exti.o(.text)
    EXTI_ClearITPendingBit                   0x0800199d   Thumb Code    30  stm32f10x_exti.o(.text)
    GPIO_DeInit                              0x080019c9   Thumb Code   224  stm32f10x_gpio.o(.text)
    GPIO_AFIODeInit                          0x08001aa9   Thumb Code    20  stm32f10x_gpio.o(.text)
    GPIO_Init                                0x08001abd   Thumb Code   378  stm32f10x_gpio.o(.text)
    GPIO_StructInit                          0x08001c37   Thumb Code    16  stm32f10x_gpio.o(.text)
    GPIO_ReadInputDataBit                    0x08001c47   Thumb Code   170  stm32f10x_gpio.o(.text)
    GPIO_ReadInputData                       0x08001cf1   Thumb Code    64  stm32f10x_gpio.o(.text)
    GPIO_ReadOutputDataBit                   0x08001d31   Thumb Code   202  stm32f10x_gpio.o(.text)
    GPIO_ReadOutputData                      0x08001dfb   Thumb Code    64  stm32f10x_gpio.o(.text)
    GPIO_SetBits                             0x08001e3b   Thumb Code    82  stm32f10x_gpio.o(.text)
    GPIO_ResetBits                           0x08001e8d   Thumb Code    82  stm32f10x_gpio.o(.text)
    GPIO_WriteBit                            0x08001edf   Thumb Code   182  stm32f10x_gpio.o(.text)
    GPIO_Write                               0x08001f95   Thumb Code    64  stm32f10x_gpio.o(.text)
    GPIO_PinLockConfig                       0x08001fd5   Thumb Code    96  stm32f10x_gpio.o(.text)
    GPIO_EventOutputConfig                   0x08002035   Thumb Code   134  stm32f10x_gpio.o(.text)
    GPIO_EventOutputCmd                      0x080020bb   Thumb Code    28  stm32f10x_gpio.o(.text)
    GPIO_PinRemapConfig                      0x080020d7   Thumb Code   552  stm32f10x_gpio.o(.text)
    GPIO_EXTILineConfig                      0x080022ff   Thumb Code   182  stm32f10x_gpio.o(.text)
    GPIO_ETH_MediaInterfaceConfig            0x080023b5   Thumb Code    28  stm32f10x_gpio.o(.text)
    PWR_DeInit                               0x080023f1   Thumb Code    22  stm32f10x_pwr.o(.text)
    PWR_BackupAccessCmd                      0x08002407   Thumb Code    26  stm32f10x_pwr.o(.text)
    PWR_PVDCmd                               0x08002421   Thumb Code    26  stm32f10x_pwr.o(.text)
    PWR_PVDLevelConfig                       0x0800243b   Thumb Code    60  stm32f10x_pwr.o(.text)
    PWR_WakeUpPinCmd                         0x08002477   Thumb Code    28  stm32f10x_pwr.o(.text)
    PWR_EnterSTOPMode                        0x08002493   Thumb Code    90  stm32f10x_pwr.o(.text)
    PWR_EnterSTANDBYMode                     0x080024ed   Thumb Code    42  stm32f10x_pwr.o(.text)
    PWR_GetFlagStatus                        0x08002517   Thumb Code    48  stm32f10x_pwr.o(.text)
    PWR_ClearFlag                            0x08002547   Thumb Code    38  stm32f10x_pwr.o(.text)
    RCC_DeInit                               0x0800257d   Thumb Code    64  stm32f10x_rcc.o(.text)
    RCC_HSEConfig                            0x080025bd   Thumb Code   100  stm32f10x_rcc.o(.text)
    RCC_GetFlagStatus                        0x08002621   Thumb Code   118  stm32f10x_rcc.o(.text)
    RCC_WaitForHSEStartUp                    0x08002697   Thumb Code    56  stm32f10x_rcc.o(.text)
    RCC_AdjustHSICalibrationValue            0x080026cf   Thumb Code    38  stm32f10x_rcc.o(.text)
    RCC_HSICmd                               0x080026f5   Thumb Code    28  stm32f10x_rcc.o(.text)
    RCC_PLLConfig                            0x08002711   Thumb Code   152  stm32f10x_rcc.o(.text)
    RCC_PLLCmd                               0x080027a9   Thumb Code    28  stm32f10x_rcc.o(.text)
    RCC_SYSCLKConfig                         0x080027c5   Thumb Code    42  stm32f10x_rcc.o(.text)
    RCC_GetSYSCLKSource                      0x080027ef   Thumb Code    10  stm32f10x_rcc.o(.text)
    RCC_HCLKConfig                           0x080027f9   Thumb Code    66  stm32f10x_rcc.o(.text)
    RCC_PCLK1Config                          0x0800283b   Thumb Code    58  stm32f10x_rcc.o(.text)
    RCC_PCLK2Config                          0x08002875   Thumb Code    60  stm32f10x_rcc.o(.text)
    RCC_ITConfig                             0x080028b1   Thumb Code    70  stm32f10x_rcc.o(.text)
    RCC_USBCLKConfig                         0x080028f7   Thumb Code    30  stm32f10x_rcc.o(.text)
    RCC_ADCCLKConfig                         0x08002915   Thumb Code    52  stm32f10x_rcc.o(.text)
    RCC_LSEConfig                            0x08002949   Thumb Code    94  stm32f10x_rcc.o(.text)
    RCC_LSICmd                               0x080029a7   Thumb Code    28  stm32f10x_rcc.o(.text)
    RCC_RTCCLKConfig                         0x080029c3   Thumb Code    50  stm32f10x_rcc.o(.text)
    RCC_RTCCLKCmd                            0x080029f5   Thumb Code    30  stm32f10x_rcc.o(.text)
    RCC_GetClocksFreq                        0x08002a13   Thumb Code   208  stm32f10x_rcc.o(.text)
    RCC_AHBPeriphClockCmd                    0x08002ae3   Thumb Code    82  stm32f10x_rcc.o(.text)
    RCC_APB2PeriphClockCmd                   0x08002b35   Thumb Code    78  stm32f10x_rcc.o(.text)
    RCC_APB1PeriphClockCmd                   0x08002b83   Thumb Code    78  stm32f10x_rcc.o(.text)
    RCC_APB2PeriphResetCmd                   0x08002bd1   Thumb Code    78  stm32f10x_rcc.o(.text)
    RCC_APB1PeriphResetCmd                   0x08002c1f   Thumb Code    78  stm32f10x_rcc.o(.text)
    RCC_BackupResetCmd                       0x08002c6d   Thumb Code    30  stm32f10x_rcc.o(.text)
    RCC_ClockSecuritySystemCmd               0x08002c8b   Thumb Code    28  stm32f10x_rcc.o(.text)
    RCC_MCOConfig                            0x08002ca7   Thumb Code    42  stm32f10x_rcc.o(.text)
    RCC_ClearFlag                            0x08002cd1   Thumb Code    18  stm32f10x_rcc.o(.text)
    RCC_GetITStatus                          0x08002ce3   Thumb Code    62  stm32f10x_rcc.o(.text)
    RCC_ClearITPendingBit                    0x08002d21   Thumb Code    32  stm32f10x_rcc.o(.text)
    RTC_ITConfig                             0x08002d71   Thumb Code    68  stm32f10x_rtc.o(.text)
    RTC_EnterConfigMode                      0x08002db5   Thumb Code    18  stm32f10x_rtc.o(.text)
    RTC_ExitConfigMode                       0x08002dc7   Thumb Code    20  stm32f10x_rtc.o(.text)
    RTC_GetCounter                           0x08002ddb   Thumb Code    18  stm32f10x_rtc.o(.text)
    RTC_SetCounter                           0x08002ded   Thumb Code    26  stm32f10x_rtc.o(.text)
    RTC_SetPrescaler                         0x08002e07   Thumb Code    44  stm32f10x_rtc.o(.text)
    RTC_SetAlarm                             0x08002e33   Thumb Code    26  stm32f10x_rtc.o(.text)
    RTC_GetDivider                           0x08002e4d   Thumb Code    22  stm32f10x_rtc.o(.text)
    RTC_WaitForLastTask                      0x08002e63   Thumb Code    18  stm32f10x_rtc.o(.text)
    RTC_WaitForSynchro                       0x08002e75   Thumb Code    36  stm32f10x_rtc.o(.text)
    RTC_GetFlagStatus                        0x08002e99   Thumb Code    56  stm32f10x_rtc.o(.text)
    RTC_ClearFlag                            0x08002ed1   Thumb Code    42  stm32f10x_rtc.o(.text)
    RTC_GetITStatus                          0x08002efb   Thumb Code    60  stm32f10x_rtc.o(.text)
    RTC_ClearITPendingBit                    0x08002f37   Thumb Code    42  stm32f10x_rtc.o(.text)
    SPI_I2S_DeInit                           0x08002f69   Thumb Code   104  stm32f10x_spi.o(.text)
    SPI_Init                                 0x08002fd1   Thumb Code   328  stm32f10x_spi.o(.text)
    I2S_Init                                 0x08003119   Thumb Code   434  stm32f10x_spi.o(.text)
    SPI_StructInit                           0x080032cb   Thumb Code    24  stm32f10x_spi.o(.text)
    I2S_StructInit                           0x080032e3   Thumb Code    20  stm32f10x_spi.o(.text)
    SPI_Cmd                                  0x080032f7   Thumb Code    78  stm32f10x_spi.o(.text)
    I2S_Cmd                                  0x08003345   Thumb Code    92  stm32f10x_spi.o(.text)
    SPI_I2S_ITConfig                         0x080033a1   Thumb Code   120  stm32f10x_spi.o(.text)
    SPI_I2S_DMACmd                           0x08003419   Thumb Code    96  stm32f10x_spi.o(.text)
    SPI_I2S_SendData                         0x08003479   Thumb Code    40  stm32f10x_spi.o(.text)
    SPI_I2S_ReceiveData                      0x080034a1   Thumb Code    38  stm32f10x_spi.o(.text)
    SPI_NSSInternalSoftwareConfig            0x080034c7   Thumb Code    92  stm32f10x_spi.o(.text)
    SPI_SSOutputCmd                          0x08003523   Thumb Code    78  stm32f10x_spi.o(.text)
    SPI_DataSizeConfig                       0x08003571   Thumb Code    74  stm32f10x_spi.o(.text)
    SPI_TransmitCRC                          0x080035bb   Thumb Code    44  stm32f10x_spi.o(.text)
    SPI_CalculateCRC                         0x080035e7   Thumb Code    78  stm32f10x_spi.o(.text)
    SPI_GetCRC                               0x08003635   Thumb Code    70  stm32f10x_spi.o(.text)
    SPI_GetCRCPolynomial                     0x0800367b   Thumb Code    38  stm32f10x_spi.o(.text)
    SPI_BiDirectionalLineConfig              0x080036a1   Thumb Code    90  stm32f10x_spi.o(.text)
    SPI_I2S_GetFlagStatus                    0x080036fb   Thumb Code   116  stm32f10x_spi.o(.text)
    SPI_I2S_ClearFlag                        0x0800376f   Thumb Code    58  stm32f10x_spi.o(.text)
    SPI_I2S_GetITStatus                      0x080037a9   Thumb Code   134  stm32f10x_spi.o(.text)
    SPI_I2S_ClearITPendingBit                0x0800382f   Thumb Code    70  stm32f10x_spi.o(.text)
    USART_DeInit                             0x08003885   Thumb Code   174  stm32f10x_usart.o(.text)
    USART_Init                               0x08003933   Thumb Code   450  stm32f10x_usart.o(.text)
    USART_StructInit                         0x08003af5   Thumb Code    24  stm32f10x_usart.o(.text)
    USART_ClockInit                          0x08003b0d   Thumb Code   162  stm32f10x_usart.o(.text)
    USART_ClockStructInit                    0x08003baf   Thumb Code    12  stm32f10x_usart.o(.text)
    USART_Cmd                                0x08003bbb   Thumb Code    90  stm32f10x_usart.o(.text)
    USART_ITConfig                           0x08003c15   Thumb Code   278  stm32f10x_usart.o(.text)
    USART_DMACmd                             0x08003d2b   Thumb Code   108  stm32f10x_usart.o(.text)
    USART_SetAddress                         0x08003d97   Thumb Code    82  stm32f10x_usart.o(.text)
    USART_WakeUpConfig                       0x08003de9   Thumb Code    86  stm32f10x_usart.o(.text)
    USART_ReceiverWakeUpCmd                  0x08003e3f   Thumb Code    90  stm32f10x_usart.o(.text)
    USART_LINBreakDetectLengthConfig         0x08003e99   Thumb Code    84  stm32f10x_usart.o(.text)
    USART_LINCmd                             0x08003eed   Thumb Code    90  stm32f10x_usart.o(.text)
    USART_SendData                           0x08003f47   Thumb Code    74  stm32f10x_usart.o(.text)
    USART_ReceiveData                        0x08003f91   Thumb Code    54  stm32f10x_usart.o(.text)
    USART_SendBreak                          0x08003fc7   Thumb Code    56  stm32f10x_usart.o(.text)
    USART_SetGuardTime                       0x08003fff   Thumb Code    52  stm32f10x_usart.o(.text)
    USART_SetPrescaler                       0x08004033   Thumb Code    64  stm32f10x_usart.o(.text)
    USART_SmartCardCmd                       0x08004073   Thumb Code   102  stm32f10x_usart.o(.text)
    USART_SmartCardNACKCmd                   0x080040d9   Thumb Code    78  stm32f10x_usart.o(.text)
    USART_HalfDuplexCmd                      0x08004127   Thumb Code    90  stm32f10x_usart.o(.text)
    USART_OverSampling8Cmd                   0x08004181   Thumb Code    88  stm32f10x_usart.o(.text)
    USART_OneBitMethodCmd                    0x080041d9   Thumb Code    90  stm32f10x_usart.o(.text)
    USART_IrDAConfig                         0x08004233   Thumb Code    84  stm32f10x_usart.o(.text)
    USART_IrDACmd                            0x08004287   Thumb Code    90  stm32f10x_usart.o(.text)
    USART_GetFlagStatus                      0x080042e1   Thumb Code   158  stm32f10x_usart.o(.text)
    USART_ClearFlag                          0x0800437f   Thumb Code   116  stm32f10x_usart.o(.text)
    USART_GetITStatus                        0x080043f3   Thumb Code   278  stm32f10x_usart.o(.text)
    USART_ClearITPendingBit                  0x08004509   Thumb Code   152  stm32f10x_usart.o(.text)
    rt_system_tick_init                      0x080045b9   Thumb Code     2  clock.o(.text)
    rt_tick_get                              0x080045bb   Thumb Code     6  clock.o(.text)
    rt_tick_set                              0x080045c1   Thumb Code    22  clock.o(.text)
    rt_tick_increase                         0x080045d7   Thumb Code    42  clock.o(.text)
    rt_tick_from_millisecond                 0x08004601   Thumb Code    22  clock.o(.text)
    rt_device_find                           0x0800461d   Thumb Code    76  device.o(.text)
    rt_device_register                       0x08004669   Thumb Code    52  device.o(.text)
    rt_device_unregister                     0x0800469d   Thumb Code    26  device.o(.text)
    rt_device_init_all                       0x080046b7   Thumb Code     4  device.o(.text)
    rt_device_init                           0x080046bb   Thumb Code    64  device.o(.text)
    rt_device_open                           0x080046fb   Thumb Code   136  device.o(.text)
    rt_device_close                          0x08004783   Thumb Code    68  device.o(.text)
    rt_device_read                           0x080047c7   Thumb Code    76  device.o(.text)
    rt_device_write                          0x08004813   Thumb Code    76  device.o(.text)
    rt_device_control                        0x0800485f   Thumb Code    42  device.o(.text)
    rt_device_set_rx_indicate                0x08004889   Thumb Code    26  device.o(.text)
    rt_device_set_tx_complete                0x080048a3   Thumb Code    26  device.o(.text)
    rt_thread_idle_sethook                   0x08004941   Thumb Code     6  idle.o(.text)
    rt_thread_idle_excute                    0x08004947   Thumb Code   154  idle.o(.text)
    rt_thread_idle_init                      0x080049f5   Thumb Code    38  idle.o(.text)
    rt_thread_idle_gethandler                0x08004a1b   Thumb Code     4  idle.o(.text)
    rt_sem_init                              0x08004b25   Thumb Code    50  ipc.o(.text)
    rt_sem_detach                            0x08004b57   Thumb Code    34  ipc.o(.text)
    rt_sem_create                            0x08004b79   Thumb Code    84  ipc.o(.text)
    rt_sem_delete                            0x08004bcd   Thumb Code    78  ipc.o(.text)
    rt_sem_take                              0x08004c1b   Thumb Code   266  ipc.o(.text)
    rt_sem_trytake                           0x08004d25   Thumb Code    14  ipc.o(.text)
    rt_sem_release                           0x08004d33   Thumb Code    80  ipc.o(.text)
    rt_sem_control                           0x08004d83   Thumb Code    68  ipc.o(.text)
    rt_mutex_init                            0x08004dc7   Thumb Code    58  ipc.o(.text)
    rt_mutex_detach                          0x08004e01   Thumb Code    36  ipc.o(.text)
    rt_mutex_create                          0x08004e25   Thumb Code    96  ipc.o(.text)
    rt_mutex_delete                          0x08004e85   Thumb Code    78  ipc.o(.text)
    rt_mutex_take                            0x08004ed3   Thumb Code   524  ipc.o(.text)
    rt_mutex_release                         0x080050df   Thumb Code   272  ipc.o(.text)
    rt_mutex_control                         0x080051ef   Thumb Code     8  ipc.o(.text)
    rt_event_init                            0x080051f7   Thumb Code    46  ipc.o(.text)
    rt_event_detach                          0x08005225   Thumb Code    36  ipc.o(.text)
    rt_event_create                          0x08005249   Thumb Code    88  ipc.o(.text)
    rt_event_delete                          0x080052a1   Thumb Code    82  ipc.o(.text)
    rt_event_send                            0x080052f3   Thumb Code   210  ipc.o(.text)
    rt_event_recv                            0x080053c5   Thumb Code   448  ipc.o(.text)
    rt_event_control                         0x08005585   Thumb Code    70  ipc.o(.text)
    rt_mb_init                               0x080055cb   Thumb Code    76  ipc.o(.text)
    rt_mb_detach                             0x08005617   Thumb Code    44  ipc.o(.text)
    rt_mb_create                             0x08005643   Thumb Code   128  ipc.o(.text)
    rt_mb_delete                             0x080056c3   Thumb Code    96  ipc.o(.text)
    rt_mb_send_wait                          0x08005723   Thumb Code   436  ipc.o(.text)
    rt_mb_send                               0x080058d7   Thumb Code    18  ipc.o(.text)
    rt_mb_recv                               0x080058e9   Thumb Code   412  ipc.o(.text)
    rt_mb_control                            0x08005a85   Thumb Code    82  ipc.o(.text)
    rt_mq_init                               0x08005ad7   Thumb Code   118  ipc.o(.text)
    rt_mq_detach                             0x08005b4d   Thumb Code    36  ipc.o(.text)
    rt_mq_delete                             0x08005b71   Thumb Code    88  ipc.o(.text)
    rt_mq_create                             0x08005bc9   Thumb Code   174  ipc.o(.text)
    rt_mq_send                               0x08005c77   Thumb Code   290  ipc.o(.text)
    rt_mq_urgent                             0x08005d99   Thumb Code   198  ipc.o(.text)
    rt_mq_recv                               0x08005e5f   Thumb Code   438  ipc.o(.text)
    rt_mq_control                            0x08006015   Thumb Code    98  ipc.o(.text)
    rt_interrupt_enter_sethook               0x080060cd   Thumb Code     6  irq.o(.text)
    rt_interrupt_leave_sethook               0x080060d3   Thumb Code     6  irq.o(.text)
    rt_interrupt_enter                       0x080060d9   Thumb Code    46  irq.o(.text)
    rt_interrupt_leave                       0x08006107   Thumb Code    46  irq.o(.text)
    rt_interrupt_get_nest                    0x08006135   Thumb Code     6  irq.o(.text)
    rt_get_errno                             0x08006149   Thumb Code    32  kservice.o(.text)
    rt_set_errno                             0x08006169   Thumb Code    36  kservice.o(.text)
    _rt_errno                                0x0800618d   Thumb Code    30  kservice.o(.text)
    rt_memset                                0x080061ab   Thumb Code    72  kservice.o(.text)
    rt_memcpy                                0x080061f3   Thumb Code   124  kservice.o(.text)
    rt_memmove                               0x0800626f   Thumb Code    66  kservice.o(.text)
    rt_memcmp                                0x080062b1   Thumb Code    38  kservice.o(.text)
    rt_strlen                                0x080062d7   Thumb Code    18  kservice.o(.text)
    rt_strstr                                0x080062e9   Thumb Code    58  kservice.o(.text)
    rt_strcasecmp                            0x08006323   Thumb Code    48  kservice.o(.text)
    rt_strncpy                               0x08006353   Thumb Code    52  kservice.o(.text)
    rt_strncmp                               0x08006387   Thumb Code    40  kservice.o(.text)
    rt_strcmp                                0x080063af   Thumb Code    28  kservice.o(.text)
    rt_strnlen                               0x080063cb   Thumb Code    24  kservice.o(.text)
    rt_strdup                                0x080063e3   Thumb Code    40  kservice.o(.text)
    rt_hw_console_output                     0x0800640b   Thumb Code     2  kservice.o(.text)
    rt_vsnprintf                             0x080065c3   Thumb Code   800  kservice.o(.text)
    rt_kprintf                               0x080068e3   Thumb Code    96  kservice.o(.text)
    rt_show_version                          0x08006943   Thumb Code    50  kservice.o(.text)
    rt_snprintf                              0x08006975   Thumb Code    38  kservice.o(.text)
    rt_vsprintf                              0x0800699b   Thumb Code    22  kservice.o(.text)
    rt_sprintf                               0x080069b1   Thumb Code    34  kservice.o(.text)
    rt_console_get_device                    0x080069d3   Thumb Code     6  kservice.o(.text)
    rt_console_set_device                    0x080069d9   Thumb Code    48  kservice.o(.text)
    rt_kputs                                 0x08006a09   Thumb Code    72  kservice.o(.text)
    rt_malloc_align                          0x08006a51   Thumb Code    66  kservice.o(.text)
    rt_free_align                            0x08006a93   Thumb Code    16  kservice.o(.text)
    __rt_ffs                                 0x08006aa3   Thumb Code    70  kservice.o(.text)
    rt_assert_set_hook                       0x08006ae9   Thumb Code     6  kservice.o(.text)
    rt_assert_handler                        0x08006aef   Thumb Code    56  kservice.o(.text)
    rt_malloc_sethook                        0x08006c0d   Thumb Code     6  mem.o(.text)
    rt_free_sethook                          0x08006c13   Thumb Code     6  mem.o(.text)
    rt_system_heap_init                      0x08006cb9   Thumb Code   204  mem.o(.text)
    rt_malloc                                0x08006d85   Thumb Code   520  mem.o(.text)
    rt_free                                  0x08006f8d   Thumb Code   602  mem.o(.text)
    rt_realloc                               0x080071e7   Thumb Code   312  mem.o(.text)
    rt_calloc                                0x0800731f   Thumb Code    84  mem.o(.text)
    rt_memory_info                           0x08007373   Thumb Code    26  mem.o(.text)
    list_mem                                 0x0800738d   Thumb Code    34  mem.o(.text)
    rt_object_attach_sethook                 0x080074a1   Thumb Code     6  object.o(.text)
    rt_object_detach_sethook                 0x080074a7   Thumb Code     6  object.o(.text)
    rt_object_trytake_sethook                0x080074ad   Thumb Code     6  object.o(.text)
    rt_object_take_sethook                   0x080074b3   Thumb Code     6  object.o(.text)
    rt_object_put_sethook                    0x080074b9   Thumb Code     6  object.o(.text)
    rt_system_object_init                    0x080074bf   Thumb Code     2  object.o(.text)
    rt_object_get_information                0x080074c1   Thumb Code    10  object.o(.text)
    rt_object_init                           0x080074cb   Thumb Code    76  object.o(.text)
    rt_object_detach                         0x08007517   Thumb Code    56  object.o(.text)
    rt_object_allocate                       0x0800754f   Thumb Code   132  object.o(.text)
    rt_object_delete                         0x080075d3   Thumb Code    84  object.o(.text)
    rt_object_is_systemobject                0x08007627   Thumb Code    34  object.o(.text)
    rt_object_find                           0x08007649   Thumb Code   126  object.o(.text)
    rt_scheduler_sethook                     0x0800775d   Thumb Code     6  scheduler.o(.text)
    rt_system_scheduler_init                 0x080077bd   Thumb Code    56  scheduler.o(.text)
    rt_system_scheduler_start                0x080077f5   Thumb Code    36  scheduler.o(.text)
    rt_schedule                              0x08007819   Thumb Code   134  scheduler.o(.text)
    rt_schedule_insert_thread                0x0800789f   Thumb Code    82  scheduler.o(.text)
    rt_schedule_remove_thread                0x080078f1   Thumb Code    94  scheduler.o(.text)
    rt_enter_critical                        0x0800794f   Thumb Code    28  scheduler.o(.text)
    rt_exit_critical                         0x0800796b   Thumb Code    54  scheduler.o(.text)
    rt_critical_level                        0x080079a1   Thumb Code     8  scheduler.o(.text)
    rt_thread_suspend_sethook                0x08007a65   Thumb Code     6  thread.o(.text)
    rt_thread_resume_sethook                 0x08007a6b   Thumb Code     6  thread.o(.text)
    rt_thread_inited_sethook                 0x08007a71   Thumb Code     6  thread.o(.text)
    rt_thread_exit                           0x08007a77   Thumb Code    76  thread.o(.text)
    rt_thread_timeout                        0x08007ac3   Thumb Code    66  thread.o(.text)
    rt_thread_init                           0x08007ba3   Thumb Code    74  thread.o(.text)
    rt_thread_self                           0x08007bed   Thumb Code     6  thread.o(.text)
    rt_thread_resume                         0x08007bf3   Thumb Code    96  thread.o(.text)
    rt_thread_startup                        0x08007c53   Thumb Code    84  thread.o(.text)
    rt_thread_detach                         0x08007ca7   Thumb Code    80  thread.o(.text)
    rt_thread_create                         0x08007cf7   Thumb Code    80  thread.o(.text)
    rt_thread_delete                         0x08007d47   Thumb Code    70  thread.o(.text)
    rt_thread_yield                          0x08007d8d   Thumb Code    88  thread.o(.text)
    rt_thread_suspend                        0x08007de5   Thumb Code   300  thread.o(.text)
    rt_thread_sleep                          0x08007f11   Thumb Code    78  thread.o(.text)
    rt_thread_delay                          0x08007f5f   Thumb Code    12  thread.o(.text)
    rt_thread_control                        0x08007f6b   Thumb Code   130  thread.o(.text)
    rt_thread_find                           0x08007fed   Thumb Code    76  thread.o(.text)
    rt_timer_timeout_sethook                 0x08008057   Thumb Code     6  timer.o(.text)
    rt_timer_init                            0x080080e9   Thumb Code    58  timer.o(.text)
    rt_timer_detach                          0x08008123   Thumb Code    44  timer.o(.text)
    rt_timer_create                          0x0800814f   Thumb Code    54  timer.o(.text)
    rt_timer_delete                          0x08008185   Thumb Code    46  timer.o(.text)
    rt_timer_start                           0x080081b3   Thumb Code   292  timer.o(.text)
    rt_timer_stop                            0x080082d7   Thumb Code    80  timer.o(.text)
    rt_timer_control                         0x08008327   Thumb Code    76  timer.o(.text)
    rt_timer_check                           0x08008373   Thumb Code   148  timer.o(.text)
    rt_timer_next_timeout_tick               0x08008407   Thumb Code    10  timer.o(.text)
    rt_system_timer_init                     0x08008411   Thumb Code    24  timer.o(.text)
    rt_system_timer_thread_init              0x08008429   Thumb Code     2  timer.o(.text)
    rt_hw_stack_init                         0x080084a5   Thumb Code    70  cpuport.o(.text)
    rt_hw_exception_install                  0x080084eb   Thumb Code     6  cpuport.o(.text)
    rt_hw_hard_fault_exception               0x080086cf   Thumb Code   198  cpuport.o(.text)
    rt_hw_cpu_shutdown                       0x08008795   Thumb Code    22  cpuport.o(.text)
    rt_hw_interrupt_disable                  0x08008a79   Thumb Code     8  context_rvds.o(.text)
    rt_hw_interrupt_enable                   0x08008a81   Thumb Code     6  context_rvds.o(.text)
    rt_hw_context_switch                     0x08008a87   Thumb Code    32  context_rvds.o(.text)
    rt_hw_context_switch_interrupt           0x08008a87   Thumb Code     0  context_rvds.o(.text)
    PendSV_Handler                           0x08008aa7   Thumb Code    60  context_rvds.o(.text)
    rt_hw_context_switch_to                  0x08008ae3   Thumb Code    56  context_rvds.o(.text)
    rt_hw_interrupt_thread_switch            0x08008b1b   Thumb Code     2  context_rvds.o(.text)
    HardFault_Handler                        0x08008b1d   Thumb Code    48  context_rvds.o(.text)
    rt_hw_serial_register                    0x080092f7   Thumb Code    76  serial.o(.text)
    rt_hw_serial_isr                         0x08009343   Thumb Code   498  serial.o(.text)
    rt_completion_init                       0x08009765   Thumb Code    42  completion.o(.text)
    rt_completion_wait                       0x0800978f   Thumb Code   198  completion.o(.text)
    rt_completion_done                       0x08009855   Thumb Code    76  completion.o(.text)
    rt_data_queue_init                       0x0800993b   Thumb Code    76  dataqueue.o(.text)
    rt_data_queue_push                       0x08009987   Thumb Code   282  dataqueue.o(.text)
    rt_data_queue_pop                        0x08009aa1   Thumb Code   342  dataqueue.o(.text)
    rt_data_queue_peak                       0x08009bf7   Thumb Code   104  dataqueue.o(.text)
    rt_data_queue_reset                      0x08009c5f   Thumb Code   106  dataqueue.o(.text)
    rt_hw_can_register                       0x0800a8a7   Thumb Code   160  can.o(.text)
    rt_hw_can_isr                            0x0800a947   Thumb Code   690  can.o(.text)
    cmd_canstat                              0x0800abf9   Thumb Code   516  can.o(.text)
    finsh_set_device                         0x0800ae53   Thumb Code   156  shell.o(.text)
    finsh_get_device                         0x0800aeef   Thumb Code    28  shell.o(.text)
    finsh_set_echo                           0x0800af0b   Thumb Code    30  shell.o(.text)
    finsh_get_echo                           0x0800af29   Thumb Code    32  shell.o(.text)
    finsh_run_line                           0x0800af65   Thumb Code    90  shell.o(.text)
    finsh_thread_entry                       0x0800b097   Thumb Code  1634  shell.o(.text)
    finsh_system_function_init               0x0800b6f9   Thumb Code    10  shell.o(.text)
    finsh_system_var_init                    0x0800b703   Thumb Code    10  shell.o(.text)
    finsh_system_init                        0x0800b70d   Thumb Code   122  shell.o(.text)
    hello                                    0x0800b7f1   Thumb Code    12  cmd.o(.text)
    version                                  0x0800b7fd   Thumb Code    10  cmd.o(.text)
    list_thread                              0x0800b905   Thumb Code    10  cmd.o(.text)
    list_sem                                 0x0800b9c7   Thumb Code    12  cmd.o(.text)
    list_event                               0x0800ba51   Thumb Code    12  cmd.o(.text)
    list_mutex                               0x0800bab9   Thumb Code    12  cmd.o(.text)
    list_mailbox                             0x0800bb69   Thumb Code    12  cmd.o(.text)
    list_msgqueue                            0x0800bedf   Thumb Code    10  cmd.o(.text)
    list_mempool                             0x0800bf6f   Thumb Code    12  cmd.o(.text)
    list_timer                               0x0800bfeb   Thumb Code    12  cmd.o(.text)
    list_device                              0x0800c073   Thumb Code    12  cmd.o(.text)
    list                                     0x0800c07f   Thumb Code   126  cmd.o(.text)
    list_prefix                              0x0800c13f   Thumb Code  1014  cmd.o(.text)
    finsh_compiler_run                       0x0800dd17   Thumb Code    88  finsh_compiler.o(.text)
    finsh_error_init                         0x0800dd81   Thumb Code     8  finsh_error.o(.text)
    finsh_error_set                          0x0800dd89   Thumb Code    10  finsh_error.o(.text)
    finsh_errno                              0x0800dd93   Thumb Code     6  finsh_error.o(.text)
    finsh_error_string                       0x0800dd99   Thumb Code    10  finsh_error.o(.text)
    finsh_heap_init                          0x0800ddad   Thumb Code    36  finsh_heap.o(.text)
    finsh_heap_free                          0x0800ded1   Thumb Code    34  finsh_heap.o(.text)
    finsh_heap_allocate                      0x0800df41   Thumb Code   106  finsh_heap.o(.text)
    finsh_init                               0x0800dfbd   Thumb Code    30  finsh_init.o(.text)
    finsh_stack_bottom                       0x0800dfdb   Thumb Code     6  finsh_init.o(.text)
    finsh_flush                              0x0800dfe1   Thumb Code    22  finsh_init.o(.text)
    finsh_reset                              0x0800dff7   Thumb Code    24  finsh_init.o(.text)
    finsh_node_init                          0x0800e015   Thumb Code    16  finsh_node.o(.text)
    finsh_node_allocate                      0x0800e025   Thumb Code    56  finsh_node.o(.text)
    finsh_node_new_id                        0x0800e05d   Thumb Code   118  finsh_node.o(.text)
    finsh_node_new_char                      0x0800e0d3   Thumb Code    30  finsh_node.o(.text)
    finsh_node_new_int                       0x0800e0f1   Thumb Code    30  finsh_node.o(.text)
    finsh_node_new_long                      0x0800e10f   Thumb Code    30  finsh_node.o(.text)
    finsh_node_new_string                    0x0800e12d   Thumb Code    74  finsh_node.o(.text)
    finsh_node_new_ptr                       0x0800e177   Thumb Code    30  finsh_node.o(.text)
    OP_no_op                                 0x0800e199   Thumb Code     2  finsh_ops.o(.text)
    OP_add_byte                              0x0800e19b   Thumb Code    42  finsh_ops.o(.text)
    OP_add_word                              0x0800e1c5   Thumb Code    44  finsh_ops.o(.text)
    OP_add_dword                             0x0800e1f1   Thumb Code    42  finsh_ops.o(.text)
    OP_sub_byte                              0x0800e21b   Thumb Code    42  finsh_ops.o(.text)
    OP_sub_word                              0x0800e245   Thumb Code    44  finsh_ops.o(.text)
    OP_sub_dword                             0x0800e271   Thumb Code    42  finsh_ops.o(.text)
    OP_div_byte                              0x0800e29b   Thumb Code    44  finsh_ops.o(.text)
    OP_div_word                              0x0800e2c7   Thumb Code    46  finsh_ops.o(.text)
    OP_div_dword                             0x0800e2f5   Thumb Code    44  finsh_ops.o(.text)
    OP_mod_byte                              0x0800e321   Thumb Code    48  finsh_ops.o(.text)
    OP_mod_word                              0x0800e351   Thumb Code    48  finsh_ops.o(.text)
    OP_mod_dword                             0x0800e381   Thumb Code    48  finsh_ops.o(.text)
    OP_mul_byte                              0x0800e3b1   Thumb Code    42  finsh_ops.o(.text)
    OP_mul_word                              0x0800e3db   Thumb Code    44  finsh_ops.o(.text)
    OP_mul_dword                             0x0800e407   Thumb Code    42  finsh_ops.o(.text)
    OP_and_byte                              0x0800e431   Thumb Code    42  finsh_ops.o(.text)
    OP_and_word                              0x0800e45b   Thumb Code    42  finsh_ops.o(.text)
    OP_and_dword                             0x0800e485   Thumb Code    42  finsh_ops.o(.text)
    OP_or_byte                               0x0800e4af   Thumb Code    42  finsh_ops.o(.text)
    OP_or_word                               0x0800e4d9   Thumb Code    42  finsh_ops.o(.text)
    OP_or_dword                              0x0800e503   Thumb Code    42  finsh_ops.o(.text)
    OP_xor_byte                              0x0800e52d   Thumb Code    42  finsh_ops.o(.text)
    OP_xor_word                              0x0800e557   Thumb Code    46  finsh_ops.o(.text)
    OP_xor_dword                             0x0800e585   Thumb Code    42  finsh_ops.o(.text)
    OP_bw_byte                               0x0800e5af   Thumb Code    20  finsh_ops.o(.text)
    OP_bw_word                               0x0800e5c3   Thumb Code    20  finsh_ops.o(.text)
    OP_bw_dword                              0x0800e5d7   Thumb Code    20  finsh_ops.o(.text)
    OP_shl_byte                              0x0800e5eb   Thumb Code    42  finsh_ops.o(.text)
    OP_shl_word                              0x0800e615   Thumb Code    44  finsh_ops.o(.text)
    OP_shl_dword                             0x0800e641   Thumb Code    42  finsh_ops.o(.text)
    OP_shr_byte                              0x0800e66b   Thumb Code    42  finsh_ops.o(.text)
    OP_shr_word                              0x0800e695   Thumb Code    42  finsh_ops.o(.text)
    OP_shr_dword                             0x0800e6bf   Thumb Code    42  finsh_ops.o(.text)
    OP_ld_byte                               0x0800e6e9   Thumb Code    34  finsh_ops.o(.text)
    OP_ld_word                               0x0800e70b   Thumb Code    46  finsh_ops.o(.text)
    OP_ld_dword                              0x0800e739   Thumb Code    64  finsh_ops.o(.text)
    OP_ld_value_byte                         0x0800e779   Thumb Code    66  finsh_ops.o(.text)
    OP_ld_value_byte_stack                   0x0800e7bb   Thumb Code    20  finsh_ops.o(.text)
    OP_ld_value_word                         0x0800e7cf   Thumb Code    66  finsh_ops.o(.text)
    OP_ld_value_word_stack                   0x0800e811   Thumb Code    20  finsh_ops.o(.text)
    OP_ld_value_dword                        0x0800e825   Thumb Code    66  finsh_ops.o(.text)
    OP_ld_value_dword_stack                  0x0800e867   Thumb Code    20  finsh_ops.o(.text)
    OP_st_byte                               0x0800e87b   Thumb Code    30  finsh_ops.o(.text)
    OP_st_word                               0x0800e899   Thumb Code    30  finsh_ops.o(.text)
    OP_st_dword                              0x0800e8b7   Thumb Code    30  finsh_ops.o(.text)
    OP_pop                                   0x0800e8d5   Thumb Code    12  finsh_ops.o(.text)
    OP_call                                  0x0800e8e1   Thumb Code   906  finsh_ops.o(.text)
    finsh_parser_run                         0x0800f501   Thumb Code   220  finsh_parser.o(.text)
    finsh_parser_init                        0x0800f5dd   Thumb Code    16  finsh_parser.o(.text)
    finsh_var_init                           0x0800f5ed   Thumb Code    14  finsh_var.o(.text)
    finsh_var_insert                         0x0800f5fb   Thumb Code   114  finsh_var.o(.text)
    finsh_var_delete                         0x0800f66d   Thumb Code    68  finsh_var.o(.text)
    finsh_var_lookup                         0x0800f6b1   Thumb Code    58  finsh_var.o(.text)
    finsh_sysvar_append                      0x0800f6eb   Thumb Code    62  finsh_var.o(.text)
    finsh_sysvar_lookup                      0x0800f729   Thumb Code    78  finsh_var.o(.text)
    finsh_vm_run                             0x0800f789   Thumb Code    62  finsh_vm.o(.text)
    finsh_syscall_append                     0x0800f7c7   Thumb Code    54  finsh_vm.o(.text)
    finsh_syscall_lookup                     0x0800f7fd   Thumb Code    78  finsh_vm.o(.text)
    finsh_token_init                         0x0800f86d   Thumb Code    20  finsh_token.o(.text)
    token_get_string                         0x0800fc85   Thumb Code   120  finsh_token.o(.text)
    finsh_token_token                        0x0800febd   Thumb Code    24  finsh_token.o(.text)
    finsh_token_get_token                    0x0800fed5   Thumb Code    20  finsh_token.o(.text)
    rt_components_board_init                 0x0800fefd   Thumb Code    20  components.o(.text)
    rt_components_init                       0x0800ff11   Thumb Code    26  components.o(.text)
    rt_hw_led_init                           0x0800ff4d   Thumb Code    60  led.o(.text)
    rt_hw_led_on                             0x0800ff89   Thumb Code    12  led.o(.text)
    rt_hw_led_off                            0x0800ff95   Thumb Code    12  led.o(.text)
    set_led                                  0x0800ffa1   Thumb Code    46  led.o(.text)
    delay_us                                 0x0800ffdd   Thumb Code    72  delay.o(.text)
    delay_ms                                 0x08010025   Thumb Code    18  delay.o(.text)
    rt_hw_us_delay                           0x08010037   Thumb Code    38  delay.o(.text)
    WFI_SET                                  0x08010065   Thumb Code     4  sys.o(.text)
    INTX_DISABLE                             0x08010069   Thumb Code     4  sys.o(.text)
    INTX_ENABLE                              0x0801006d   Thumb Code     4  sys.o(.text)
    shift_in                                 0x08010071   Thumb Code    90  sys.o(.text)
    shift_out                                0x080100cb   Thumb Code    94  sys.o(.text)
    crc16                                    0x08010129   Thumb Code    48  crc.o(.text)
    crc8                                     0x08010159   Thumb Code    30  crc.o(.text)
    exit_nvic_init                           0x08010185   Thumb Code    38  mcu_exit.o(.text)
    exit_init                                0x080101ab   Thumb Code   604  mcu_exit.o(.text)
    EXTI0_IRQHandler                         0x08010407   Thumb Code    24  mcu_exit.o(.text)
    EXTI1_IRQHandler                         0x0801041f   Thumb Code    24  mcu_exit.o(.text)
    EXTI2_IRQHandler                         0x08010437   Thumb Code    24  mcu_exit.o(.text)
    EXTI3_IRQHandler                         0x0801044f   Thumb Code    24  mcu_exit.o(.text)
    EXTI4_IRQHandler                         0x08010467   Thumb Code    24  mcu_exit.o(.text)
    EXTI9_5_IRQHandler                       0x0801047f   Thumb Code   118  mcu_exit.o(.text)
    EXTI15_10_IRQHandler                     0x080104f5   Thumb Code   236  mcu_exit.o(.text)
    pinMode                                  0x080105e1   Thumb Code   180  mcu_gpio.o(.text)
    pinSet                                   0x08010695   Thumb Code     8  mcu_gpio.o(.text)
    pinReset                                 0x0801069d   Thumb Code     8  mcu_gpio.o(.text)
    pinWrite                                 0x080106a5   Thumb Code    18  mcu_gpio.o(.text)
    pinRead                                  0x080106b7   Thumb Code    20  mcu_gpio.o(.text)
    pinToggle                                0x080106cb   Thumb Code    14  mcu_gpio.o(.text)
    sec_event                                0x080106e1   Thumb Code    90  mcu_rtc.o(.text)
    set_clock                                0x0801073b   Thumb Code    24  mcu_rtc.o(.text)
    Rtc_get_counter                          0x08010753   Thumb Code     8  mcu_rtc.o(.text)
    Rtc_init                                 0x08010841   Thumb Code   126  mcu_rtc.o(.text)
    Rtc_set_counter                          0x080108bf   Thumb Code    20  mcu_rtc.o(.text)
    Rtc_set_alarm                            0x080108d3   Thumb Code    20  mcu_rtc.o(.text)
    Rtc_sec_interrupt                        0x080108e7   Thumb Code    44  mcu_rtc.o(.text)
    Rtc_alarm_interrupt                      0x08010913   Thumb Code    44  mcu_rtc.o(.text)
    Rtc_overflow_interrupt                   0x0801093f   Thumb Code    44  mcu_rtc.o(.text)
    Rtc_interrupt_en                         0x0801096b   Thumb Code    48  mcu_rtc.o(.text)
    RTC_IRQHandler                           0x0801099b   Thumb Code    64  mcu_rtc.o(.text)
    SoftI2c_Init                             0x080109f9   Thumb Code    20  mcu_softi2c.o(.text)
    SoftI2c_start                            0x08010a0d   Thumb Code    48  mcu_softi2c.o(.text)
    SoftI2c_stop                             0x08010a3d   Thumb Code    48  mcu_softi2c.o(.text)
    SoftI2c_wait_ack                         0x08010a6d   Thumb Code    78  mcu_softi2c.o(.text)
    SoftI2c_send_ack                         0x08010abb   Thumb Code    54  mcu_softi2c.o(.text)
    SoftI2c_send_no_ack                      0x08010af1   Thumb Code    54  mcu_softi2c.o(.text)
    SoftI2c_send_byte                        0x08010b27   Thumb Code    80  mcu_softi2c.o(.text)
    SoftI2c_read_byte                        0x08010b77   Thumb Code    92  mcu_softi2c.o(.text)
    SoftI2c_writes                           0x08010bd3   Thumb Code   368  mcu_softi2c.o(.text)
    SoftI2c_reads                            0x08010d43   Thumb Code   404  mcu_softi2c.o(.text)
    SPI_init                                 0x08010ed9   Thumb Code   292  mcu_spi.o(.text)
    Spi_writeByte                            0x08010ffd   Thumb Code    44  mcu_spi.o(.text)
    Spi_writeBytes                           0x08011029   Thumb Code    60  mcu_spi.o(.text)
    Spi_readByte                             0x08011065   Thumb Code    44  mcu_spi.o(.text)
    Spi_readBytes                            0x08011091   Thumb Code    58  mcu_spi.o(.text)
    ReadWriteSPI                             0x080110cb   Thumb Code   102  mcu_spi.o(.text)
    MCP3421StartConvertion                   0x08011179   Thumb Code    38  mcp3421.o(.text)
    MCP3421SetConvertionModeContinuous       0x0801119f   Thumb Code    20  mcp3421.o(.text)
    MCP3421SetConvertionModeOneShot          0x080111b3   Thumb Code    16  mcp3421.o(.text)
    MCP3421SetConvertionRate                 0x080111c3   Thumb Code   108  mcp3421.o(.text)
    MCP3421SetPGAGain                        0x0801122f   Thumb Code   108  mcp3421.o(.text)
    MCP3421GetValue                          0x0801129b   Thumb Code    58  mcp3421.o(.text)
    hc165_init                               0x080112f1   Thumb Code    76  74hc165.o(.text)
    hc165_read                               0x0801133d   Thumb Code    70  74hc165.o(.text)
    hc595_init                               0x08011389   Thumb Code    34  74hc595.o(.text)
    hc595_write                              0x080113ab   Thumb Code    46  74hc595.o(.text)
    hc595_updata                             0x080113d9   Thumb Code    26  74hc595.o(.text)
    w25qxx_init                              0x08011451   Thumb Code    24  w25qxx.o(.text)
    w25qxx_read                              0x080114c1   Thumb Code   110  w25qxx.o(.text)
    w25qxx_fast_read                         0x0801152f   Thumb Code   122  w25qxx.o(.text)
    w25qxx_waitBusy                          0x080115a9   Thumb Code    22  w25qxx.o(.text)
    w25qxx_write_page                        0x080115bf   Thumb Code   120  w25qxx.o(.text)
    w25qxx_write_no_check                    0x08011637   Thumb Code    74  w25qxx.o(.text)
    w25qxx_erase_sector                      0x08011681   Thumb Code    82  w25qxx.o(.text)
    w25qxx_write                             0x080116d3   Thumb Code   188  w25qxx.o(.text)
    w25qxx_erase_chip                        0x0801178f   Thumb Code    34  w25qxx.o(.text)
    w25qxx_powerDown                         0x080117b1   Thumb Code    24  w25qxx.o(.text)
    w25qxx_wakeUP                            0x080117c9   Thumb Code    36  w25qxx.o(.text)
    isl29125_init                            0x080117ed   Thumb Code   158  isl29125.o(.text)
    isl29125_init_int                        0x0801188b   Thumb Code   268  isl29125.o(.text)
    isl29125_read_rgb_lux                    0x08011997   Thumb Code   182  isl29125.o(.text)
    isl29125_read_rgb_color                  0x08011a4d   Thumb Code   100  isl29125.o(.text)
    isl29125_set_mode                        0x08011ab1   Thumb Code    74  isl29125.o(.text)
    isl29125_read_irq_status                 0x08011afb   Thumb Code    42  isl29125.o(.text)
    Ds18b20_reset                            0x08011b39   Thumb Code   110  ds18b20.o(.text)
    Ds18b20_write                            0x08011ba7   Thumb Code    80  ds18b20.o(.text)
    Ds18b20_read                             0x08011bf7   Thumb Code    78  ds18b20.o(.text)
    Ds18b20_get_temp                         0x08011c45   Thumb Code   164  ds18b20.o(.text)
    L6480_Delay                              0x08011ced   Thumb Code    18  l6480.o(.text)
    L6480_Reset_And_Standby                  0x08011cff   Thumb Code    28  l6480.o(.text)
    L6480_Regs_Struct_Reset                  0x08011d1b   Thumb Code    96  l6480.o(.text)
    L6480_Write_Byte                         0x08011d7b   Thumb Code   100  l6480.o(.text)
    L6480_Set_Param                          0x08011ddf   Thumb Code   110  l6480.o(.text)
    L6480_Registers_Set                      0x08011e4d   Thumb Code   208  l6480.o(.text)
    L6480_Registers_Get                      0x08011f1d   Thumb Code     2  l6480.o(.text)
    L6480_Registers_Check                    0x08011f1f   Thumb Code     6  l6480.o(.text)
    L6480_Nop                                0x08011f25   Thumb Code    10  l6480.o(.text)
    L6480_Get_Param                          0x08011f2f   Thumb Code   132  l6480.o(.text)
    L6480_Run                                0x08011fb3   Thumb Code    38  l6480.o(.text)
    L6480_Step_Clock                         0x08011fd9   Thumb Code    14  l6480.o(.text)
    L6480_Move                               0x08011fe7   Thumb Code    38  l6480.o(.text)
    L6480_Go_To                              0x0801200d   Thumb Code    34  l6480.o(.text)
    L6480_Go_To_Dir                          0x0801202f   Thumb Code    38  l6480.o(.text)
    L6480_Go_Until                           0x08012055   Thumb Code    44  l6480.o(.text)
    L6480_Release_SW                         0x08012081   Thumb Code    20  l6480.o(.text)
    L6480_Go_Home                            0x08012095   Thumb Code    10  l6480.o(.text)
    L6480_Go_Mark                            0x0801209f   Thumb Code    10  l6480.o(.text)
    L6480_Reset_Pos                          0x080120a9   Thumb Code    10  l6480.o(.text)
    L6480_Reset_Device                       0x080120b3   Thumb Code    10  l6480.o(.text)
    L6480_Soft_Stop                          0x080120bd   Thumb Code    10  l6480.o(.text)
    L6480_Hard_Stop                          0x080120c7   Thumb Code    10  l6480.o(.text)
    L6480_Soft_HiZ                           0x080120d1   Thumb Code    10  l6480.o(.text)
    L6480_Hard_HiZ                           0x080120db   Thumb Code    66  l6480.o(.text)
    L6480_Get_Status                         0x0801211d   Thumb Code    44  l6480.o(.text)
    L6480_Busy_HW                            0x08012149   Thumb Code    20  l6480.o(.text)
    L6480_Busy_SW                            0x0801215d   Thumb Code    20  l6480.o(.text)
    L6480_getFlag                            0x08012171   Thumb Code    20  l6480.o(.text)
    Calendar_init                            0x08012189   Thumb Code    52  calendar.o(.text)
    sec_to_time                              0x080121bd   Thumb Code    64  calendar.o(.text)
    sec_in_day                               0x080121fd   Thumb Code    32  calendar.o(.text)
    seconds_between_2_time                   0x0801221d   Thumb Code    36  calendar.o(.text)
    is_leap_year                             0x08012241   Thumb Code    58  calendar.o(.text)
    day_in_year                              0x0801227b   Thumb Code    70  calendar.o(.text)
    swap                                     0x080122c1   Thumb Code    10  calendar.o(.text)
    days_between_2_date                      0x080122cb   Thumb Code   296  calendar.o(.text)
    update_cutdown                           0x080123f3   Thumb Code  1406  calendar.o(.text)
    date_to_str                              0x08012971   Thumb Code   138  calendar.o(.text)
    time_to_str                              0x080129fb   Thumb Code   126  calendar.o(.text)
    get_week                                 0x08012a79   Thumb Code    96  calendar.o(.text)
    mon_1_3_5_7_8_10_12_add_one_day          0x08012ad9   Thumb Code    36  calendar.o(.text)
    mon_4_6_9_11_add_one_day                 0x08012afd   Thumb Code    36  calendar.o(.text)
    mon_2_add_one_day                        0x08012b21   Thumb Code    76  calendar.o(.text)
    add_one_day                              0x08012b6d   Thumb Code   118  calendar.o(.text)
    add_one_sec                              0x08012be3   Thumb Code   134  calendar.o(.text)
    timezone_adjust                          0x08012c69   Thumb Code   102  calendar.o(.text)
    Calendar_set_time                        0x08012ccf   Thumb Code    92  calendar.o(.text)
    Calendar_set_date                        0x08012d2b   Thumb Code   110  calendar.o(.text)
    Calendar_sec_process_dev                 0x08012d99   Thumb Code    46  calendar.o(.text)
    Calendar_sec_process                     0x08012dc7   Thumb Code    12  calendar.o(.text)
    Calendar_set                             0x08012dd3   Thumb Code   112  calendar.o(.text)
    dt_changed                               0x08012e43   Thumb Code   112  calendar.o(.text)
    alarm_set                                0x08012eb3   Thumb Code    22  calendar.o(.text)
    alarm_check                              0x08012ec9   Thumb Code    92  calendar.o(.text)
    alarm_check_only_time                    0x08012f25   Thumb Code    56  calendar.o(.text)
    alarm_enable                             0x08012f5d   Thumb Code     8  calendar.o(.text)
    getUSBCurrent                            0x08013031   Thumb Code   126  finsh_adc_1.o(.text)
    eeprom_init                              0x08013247   Thumb Code    34  finsh_eeprom.o(.text)
    at24c256_read                            0x08013269   Thumb Code    94  finsh_eeprom.o(.text)
    at24c256_write                           0x080132c7   Thumb Code    44  finsh_eeprom.o(.text)
    Flash_write                              0x0801334d   Thumb Code    90  finsh_flash_1.o(.text)
    L6480s_init                              0x08013429   Thumb Code   668  finsh_l6480_1.o(.text)
    L6480s_Rotate                            0x080136c5   Thumb Code    36  finsh_l6480_1.o(.text)
    L6480s_Move                              0x080136e9   Thumb Code    36  finsh_l6480_1.o(.text)
    L6480s_Move_To                           0x0801370d   Thumb Code    36  finsh_l6480_1.o(.text)
    L6480s_Stop                              0x08013731   Thumb Code    28  finsh_l6480_1.o(.text)
    L6480s_Set                               0x0801374d   Thumb Code    36  finsh_l6480_1.o(.text)
    L6480s_Get                               0x08013771   Thumb Code    38  finsh_l6480_1.o(.text)
    readPins                                 0x0801390d   Thumb Code   292  finsh_logic.o(.text)
    rgbSensor_init                           0x08013d65   Thumb Code    48  finsh_rgb_sensor_1.o(.text)
    rgbSensor_loop                           0x08013d95   Thumb Code    64  finsh_rgb_sensor_1.o(.text)
    rtc_sec_sendMessage1                     0x08013e59   Thumb Code    20  finsh_rtc_1.o(.text)
    rtc_alarm_sendMessage1                   0x08013e6d   Thumb Code    10  finsh_rtc_1.o(.text)
    rtc_overflow_sendMessage1                0x08013e77   Thumb Code    10  finsh_rtc_1.o(.text)
    rtc_basic                                0x08013e81   Thumb Code    60  finsh_rtc_1.o(.text)
    rtcsecit                                 0x08013ebd   Thumb Code    22  finsh_rtc_1.o(.text)
    rtc_clock                                0x08013ed3   Thumb Code    40  finsh_rtc_1.o(.text)
    rtc_sec_event                            0x08013efb   Thumb Code    86  finsh_rtc_1.o(.text)
    calendar_app                             0x08013f51   Thumb Code    70  finsh_rtc_1.o(.text)
    sendMessage                              0x08014089   Thumb Code    16  finsh_test.o(.text)
    exit_start                               0x08014099   Thumb Code    52  finsh_test.o(.text)
    get_temp                                 0x080140ed   Thumb Code    38  finsh_temp_sensor.o(.text)
    AT24CXX_Init                             0x08014129   Thumb Code    20  at24cxx.o(.text)
    AT24CXX_ReadU8                           0x0801413d   Thumb Code    38  at24cxx.o(.text)
    AT24CXX_WriteU8                          0x08014163   Thumb Code    40  at24cxx.o(.text)
    AT24CXX_ReadU16                          0x0801418b   Thumb Code    38  at24cxx.o(.text)
    AT24CXX_WriteU16                         0x080141b1   Thumb Code    40  at24cxx.o(.text)
    AT24CXX_ReadU32                          0x080141d9   Thumb Code    38  at24cxx.o(.text)
    AT24CXX_WriteU32                         0x080141ff   Thumb Code    40  at24cxx.o(.text)
    AT24CXX_ReadF32                          0x08014227   Thumb Code    38  at24cxx.o(.text)
    AT24CXX_WriteF32                         0x0801424d   Thumb Code    40  at24cxx.o(.text)
    AT24CXX_Reads                            0x08014275   Thumb Code   118  at24cxx.o(.text)
    AT24CXX_Writes                           0x080142eb   Thumb Code   242  at24cxx.o(.text)
    __aeabi_memcpy                           0x080143e5   Thumb Code    36  memcpya.o(.text)
    __aeabi_memcpy4                          0x080143e5   Thumb Code     0  memcpya.o(.text)
    __aeabi_memcpy8                          0x080143e5   Thumb Code     0  memcpya.o(.text)
    __aeabi_memset                           0x08014409   Thumb Code    14  memseta.o(.text)
    __aeabi_memset4                          0x08014409   Thumb Code     0  memseta.o(.text)
    __aeabi_memset8                          0x08014409   Thumb Code     0  memseta.o(.text)
    __aeabi_memclr                           0x08014417   Thumb Code     4  memseta.o(.text)
    __aeabi_memclr4                          0x08014417   Thumb Code     0  memseta.o(.text)
    __aeabi_memclr8                          0x08014417   Thumb Code     0  memseta.o(.text)
    _memset$wrapper                          0x0801441b   Thumb Code    18  memseta.o(.text)
    strncpy                                  0x0801442d   Thumb Code    24  strncpy.o(.text)
    strlen                                   0x08014445   Thumb Code    14  strlen.o(.text)
    strcmp                                   0x08014453   Thumb Code    28  strcmp.o(.text)
    strncmp                                  0x0801446f   Thumb Code    30  strncmp.o(.text)
    atoi                                     0x0801448d   Thumb Code    26  atoi.o(.text)
    __aeabi_fmul                             0x080144a7   Thumb Code   100  fmul.o(.text)
    __aeabi_dadd                             0x0801450b   Thumb Code   322  dadd.o(.text)
    __aeabi_dsub                             0x0801464d   Thumb Code     6  dadd.o(.text)
    __aeabi_drsub                            0x08014653   Thumb Code     6  dadd.o(.text)
    __aeabi_dmul                             0x08014659   Thumb Code   228  dmul.o(.text)
    __aeabi_ddiv                             0x0801473d   Thumb Code   222  ddiv.o(.text)
    __aeabi_ui2f                             0x0801481b   Thumb Code    10  ffltui.o(.text)
    __aeabi_i2d                              0x08014825   Thumb Code    34  dflti.o(.text)
    __aeabi_ui2d                             0x08014847   Thumb Code    26  dfltui.o(.text)
    __aeabi_f2d                              0x08014861   Thumb Code    38  f2d.o(.text)
    __aeabi_d2f                              0x08014887   Thumb Code    56  d2f.o(.text)
    __aeabi_uidiv                            0x080148bf   Thumb Code     0  uidiv.o(.text)
    __aeabi_uidivmod                         0x080148bf   Thumb Code    44  uidiv.o(.text)
    __aeabi_uldivmod                         0x080148eb   Thumb Code    98  uldiv.o(.text)
    __aeabi_llsl                             0x0801494d   Thumb Code    30  llshl.o(.text)
    _ll_shift_l                              0x0801494d   Thumb Code     0  llshl.o(.text)
    __aeabi_llsr                             0x0801496b   Thumb Code    32  llushr.o(.text)
    _ll_ushift_r                             0x0801496b   Thumb Code     0  llushr.o(.text)
    __aeabi_lasr                             0x0801498b   Thumb Code    36  llsshr.o(.text)
    _ll_sshift_r                             0x0801498b   Thumb Code     0  llsshr.o(.text)
    strtol                                   0x080149af   Thumb Code   112  strtol.o(.text)
    __I$use$fp                               0x08014a1f   Thumb Code     0  iusefp.o(.text)
    _float_round                             0x08014a1f   Thumb Code    18  fepilogue.o(.text)
    _float_epilogue                          0x08014a31   Thumb Code    92  fepilogue.o(.text)
    _double_round                            0x08014a8d   Thumb Code    30  depilogue.o(.text)
    _double_epilogue                         0x08014aab   Thumb Code   156  depilogue.o(.text)
    __aeabi_d2ulz                            0x08014b47   Thumb Code    48  dfixul.o(.text)
    __aeabi_cdrcmple                         0x08014b79   Thumb Code    48  cdrcmple.o(.text)
    __scatterload                            0x08014ba9   Thumb Code    28  init.o(.text)
    __scatterload_rt2                        0x08014ba9   Thumb Code     0  init.o(.text)
    __rt_ctype_table                         0x08014bcd   Thumb Code     4  ctype_o.o(.text)
    _strtoul                                 0x08014bd5   Thumb Code   158  _strtoul.o(.text)
    _chval                                   0x08014c73   Thumb Code    28  _chval.o(.text)
    __decompress                             0x08014c8f   Thumb Code     0  __dczerorl2.o(.text)
    __decompress1                            0x08014c8f   Thumb Code    86  __dczerorl2.o(.text)
    __0sprintf                               0x08014ce5   Thumb Code    34  printfa.o(i.__0sprintf)
    __1sprintf                               0x08014ce5   Thumb Code     0  printfa.o(i.__0sprintf)
    __2sprintf                               0x08014ce5   Thumb Code     0  printfa.o(i.__0sprintf)
    __c89sprintf                             0x08014ce5   Thumb Code     0  printfa.o(i.__0sprintf)
    sprintf                                  0x08014ce5   Thumb Code     0  printfa.o(i.__0sprintf)
    __aeabi_errno_addr                       0x08014d0d   Thumb Code     4  errno.o(i.__aeabi_errno_addr)
    __rt_errno_addr                          0x08014d0d   Thumb Code     0  errno.o(i.__aeabi_errno_addr)
    __scatterload_copy                       0x08014d15   Thumb Code    14  handlers.o(i.__scatterload_copy)
    __scatterload_null                       0x08014d23   Thumb Code     2  handlers.o(i.__scatterload_null)
    __scatterload_zeroinit                   0x08014d25   Thumb Code    14  handlers.o(i.__scatterload_zeroinit)
    __lowest_bit_bitmap                      0x080158e1   Data         256  kservice.o(.constdata)
    op_table                                 0x08015f00   Data         196  finsh_ops.o(.constdata)
    crc8_tab                                 0x08016204   Data         256  crc.o(.constdata)
    C24LC01                                  0x08016304   Data          16  at24cxx.o(.constdata)
    C24LC02                                  0x08016314   Data          16  at24cxx.o(.constdata)
    C24LC04                                  0x08016324   Data          16  at24cxx.o(.constdata)
    C24LC08                                  0x08016334   Data          16  at24cxx.o(.constdata)
    C24LC16                                  0x08016344   Data          16  at24cxx.o(.constdata)
    C24LC32                                  0x08016354   Data          16  at24cxx.o(.constdata)
    C24LC64                                  0x08016364   Data          16  at24cxx.o(.constdata)
    C24LC128                                 0x08016374   Data          16  at24cxx.o(.constdata)
    C24LC256                                 0x08016384   Data          16  at24cxx.o(.constdata)
    C24LC512                                 0x08016394   Data          16  at24cxx.o(.constdata)
    __ctype_table                            0x080163a4   Data         129  ctype_o.o(.constdata)
    __fsym_list_mem_name                     0x08016cee   Data           9  mem.o(.rodata.name)
    __fsym_list_mem_desc                     0x08016cf7   Data          30  mem.o(.rodata.name)
    __fsym___cmd_canstat_name                0x08016d15   Data          14  can.o(.rodata.name)
    __fsym___cmd_canstat_desc                0x08016d23   Data          24  can.o(.rodata.name)
    __fsym_hello_name                        0x08016d3b   Data           6  cmd.o(.rodata.name)
    __fsym_hello_desc                        0x08016d41   Data          16  cmd.o(.rodata.name)
    __fsym_version_name                      0x08016d51   Data           8  cmd.o(.rodata.name)
    __fsym_version_desc                      0x08016d59   Data          35  cmd.o(.rodata.name)
    __fsym_list_thread_name                  0x08016d7c   Data          12  cmd.o(.rodata.name)
    __fsym_list_thread_desc                  0x08016d88   Data          12  cmd.o(.rodata.name)
    __fsym_list_sem_name                     0x08016d94   Data           9  cmd.o(.rodata.name)
    __fsym_list_sem_desc                     0x08016d9d   Data          25  cmd.o(.rodata.name)
    __fsym_list_event_name                   0x08016db6   Data          11  cmd.o(.rodata.name)
    __fsym_list_event_desc                   0x08016dc1   Data          21  cmd.o(.rodata.name)
    __fsym_list_mutex_name                   0x08016dd6   Data          11  cmd.o(.rodata.name)
    __fsym_list_mutex_desc                   0x08016de1   Data          21  cmd.o(.rodata.name)
    __fsym_list_mailbox_name                 0x08016df6   Data          13  cmd.o(.rodata.name)
    __fsym_list_mailbox_desc                 0x08016e03   Data          24  cmd.o(.rodata.name)
    __fsym_list_msgqueue_name                0x08016e1b   Data          14  cmd.o(.rodata.name)
    __fsym_list_msgqueue_desc                0x08016e29   Data          29  cmd.o(.rodata.name)
    __fsym_list_mempool_name                 0x08016e46   Data          13  cmd.o(.rodata.name)
    __fsym_list_mempool_desc                 0x08016e53   Data          27  cmd.o(.rodata.name)
    __fsym_list_timer_name                   0x08016e6e   Data          11  cmd.o(.rodata.name)
    __fsym_list_timer_desc                   0x08016e79   Data          21  cmd.o(.rodata.name)
    __fsym_list_device_name                  0x08016e8e   Data          12  cmd.o(.rodata.name)
    __fsym_list_device_desc                  0x08016e9a   Data          22  cmd.o(.rodata.name)
    __fsym_list_name                         0x08016eb0   Data           5  cmd.o(.rodata.name)
    __fsym_list_desc                         0x08016eb5   Data          26  cmd.o(.rodata.name)
    __vsym_dummy_name                        0x08016ecf   Data           6  cmd.o(.rodata.name)
    __vsym_dummy_desc                        0x08016ed5   Data          25  cmd.o(.rodata.name)
    __fsym_set_led_name                      0x08016eee   Data           8  led.o(.rodata.name)
    __fsym_set_led_desc                      0x08016ef6   Data          25  led.o(.rodata.name)
    __fsym_getUSBCurrent_name                0x08016f0f   Data          14  finsh_adc_1.o(.rodata.name)
    __fsym_getUSBCurrent_desc                0x08016f1d   Data          17  finsh_adc_1.o(.rodata.name)
    __fsym_eeprom_init_name                  0x08016f2e   Data          12  finsh_eeprom.o(.rodata.name)
    __fsym_eeprom_init_desc                  0x08016f3a   Data          12  finsh_eeprom.o(.rodata.name)
    __fsym_at24c256_read_name                0x08016f46   Data          14  finsh_eeprom.o(.rodata.name)
    __fsym_at24c256_read_desc                0x08016f54   Data          14  finsh_eeprom.o(.rodata.name)
    __fsym_at24c256_write_name               0x08016f62   Data          15  finsh_eeprom.o(.rodata.name)
    __fsym_at24c256_write_desc               0x08016f71   Data          15  finsh_eeprom.o(.rodata.name)
    __fsym_save_name                         0x08016f80   Data           5  finsh_flash_1.o(.rodata.name)
    __fsym_save_desc                         0x08016f85   Data          35  finsh_flash_1.o(.rodata.name)
    __fsym_read_name                         0x08016fa8   Data           5  finsh_flash_1.o(.rodata.name)
    __fsym_read_desc                         0x08016fad   Data          35  finsh_flash_1.o(.rodata.name)
    __fsym_init_name                         0x08016fd0   Data           5  finsh_l6480_1.o(.rodata.name)
    __fsym_init_desc                         0x08016fd5   Data           2  finsh_l6480_1.o(.rodata.name)
    __fsym_rotate_name                       0x08016fd7   Data           7  finsh_l6480_1.o(.rodata.name)
    __fsym_rotate_desc                       0x08016fde   Data           2  finsh_l6480_1.o(.rodata.name)
    __fsym_move_name                         0x08016fe0   Data           5  finsh_l6480_1.o(.rodata.name)
    __fsym_move_desc                         0x08016fe5   Data           2  finsh_l6480_1.o(.rodata.name)
    __fsym_go_name                           0x08016fe7   Data           3  finsh_l6480_1.o(.rodata.name)
    __fsym_go_desc                           0x08016fea   Data           2  finsh_l6480_1.o(.rodata.name)
    __fsym_stop_name                         0x08016fec   Data           5  finsh_l6480_1.o(.rodata.name)
    __fsym_stop_desc                         0x08016ff1   Data           2  finsh_l6480_1.o(.rodata.name)
    __fsym_set_name                          0x08016ff3   Data           4  finsh_l6480_1.o(.rodata.name)
    __fsym_set_desc                          0x08016ff7   Data           2  finsh_l6480_1.o(.rodata.name)
    __fsym_get_name                          0x08016ff9   Data           4  finsh_l6480_1.o(.rodata.name)
    __fsym_get_desc                          0x08016ffd   Data           2  finsh_l6480_1.o(.rodata.name)
    __fsym_readPin_name                      0x08016fff   Data           8  finsh_logic.o(.rodata.name)
    __fsym_readPin_desc                      0x08017007   Data          36  finsh_logic.o(.rodata.name)
    __fsym_readPins_name                     0x0801702b   Data           9  finsh_logic.o(.rodata.name)
    __fsym_readPins_desc                     0x08017034   Data          33  finsh_logic.o(.rodata.name)
    __fsym_writePin_name                     0x08017055   Data           9  finsh_logic.o(.rodata.name)
    __fsym_writePin_desc                     0x0801705e   Data          38  finsh_logic.o(.rodata.name)
    __fsym_writePins_name                    0x08017084   Data          10  finsh_logic.o(.rodata.name)
    __fsym_writePins_desc                    0x0801708e   Data          35  finsh_logic.o(.rodata.name)
    __fsym_rgbSensor_init_name               0x080170b1   Data          15  finsh_rgb_sensor_1.o(.rodata.name)
    __fsym_rgbSensor_init_desc               0x080170c0   Data           2  finsh_rgb_sensor_1.o(.rodata.name)
    __fsym_rgbSensor_loop_name               0x080170c2   Data          15  finsh_rgb_sensor_1.o(.rodata.name)
    __fsym_rgbSensor_loop_desc               0x080170d1   Data           2  finsh_rgb_sensor_1.o(.rodata.name)
    __fsym_rtc_basic_name                    0x080170d3   Data          10  finsh_rtc_1.o(.rodata.name)
    __fsym_rtc_basic_desc                    0x080170dd   Data           2  finsh_rtc_1.o(.rodata.name)
    __fsym_rtc_clock_name                    0x080170df   Data          10  finsh_rtc_1.o(.rodata.name)
    __fsym_rtc_clock_desc                    0x080170e9   Data           2  finsh_rtc_1.o(.rodata.name)
    __fsym_calendar_app_name                 0x080170eb   Data          13  finsh_rtc_1.o(.rodata.name)
    __fsym_calendar_app_desc                 0x080170f8   Data           2  finsh_rtc_1.o(.rodata.name)
    __fsym_exit_start_name                   0x080170fa   Data          11  finsh_test.o(.rodata.name)
    __fsym_exit_start_desc                   0x08017105   Data           2  finsh_test.o(.rodata.name)
    __fsym_get_temp_name                     0x08017107   Data           9  finsh_temp_sensor.o(.rodata.name)
    __fsym_get_temp_desc                     0x08017110   Data           2  finsh_temp_sensor.o(.rodata.name)
    __rt_init_rti_start                      0x08017114   Data           4  components.o(.rti_fn.0)
    __rt_init_rti_board_start                0x08017118   Data           4  components.o(.rti_fn.0.end)
    __rt_init_rti_board_end                  0x0801711c   Data           4  components.o(.rti_fn.1.end)
    __rt_init_finsh_system_init              0x08017120   Data           4  shell.o(.rti_fn.3)
    __rt_init_rti_end                        0x08017124   Data           4  components.o(.rti_fn.6.end)
    FSymTab$$Base                            0x08017128   Number         0  mem.o(FSymTab)
    __fsym_list_mem                          0x08017128   Data          12  mem.o(FSymTab)
    __fsym___cmd_canstat                     0x08017134   Data          12  can.o(FSymTab)
    __fsym_hello                             0x08017140   Data          12  cmd.o(FSymTab)
    __fsym_version                           0x0801714c   Data          12  cmd.o(FSymTab)
    __fsym_list_thread                       0x08017158   Data          12  cmd.o(FSymTab)
    __fsym_list_sem                          0x08017164   Data          12  cmd.o(FSymTab)
    __fsym_list_event                        0x08017170   Data          12  cmd.o(FSymTab)
    __fsym_list_mutex                        0x0801717c   Data          12  cmd.o(FSymTab)
    __fsym_list_mailbox                      0x08017188   Data          12  cmd.o(FSymTab)
    __fsym_list_msgqueue                     0x08017194   Data          12  cmd.o(FSymTab)
    __fsym_list_mempool                      0x080171a0   Data          12  cmd.o(FSymTab)
    __fsym_list_timer                        0x080171ac   Data          12  cmd.o(FSymTab)
    __fsym_list_device                       0x080171b8   Data          12  cmd.o(FSymTab)
    __fsym_list                              0x080171c4   Data          12  cmd.o(FSymTab)
    __fsym_set_led                           0x080171d0   Data          12  led.o(FSymTab)
    __fsym_getUSBCurrent                     0x080171dc   Data          12  finsh_adc_1.o(FSymTab)
    __fsym_eeprom_init                       0x080171e8   Data          12  finsh_eeprom.o(FSymTab)
    __fsym_at24c256_read                     0x080171f4   Data          12  finsh_eeprom.o(FSymTab)
    __fsym_at24c256_write                    0x08017200   Data          12  finsh_eeprom.o(FSymTab)
    __fsym_save                              0x0801720c   Data          12  finsh_flash_1.o(FSymTab)
    __fsym_read                              0x08017218   Data          12  finsh_flash_1.o(FSymTab)
    __fsym_init                              0x08017224   Data          12  finsh_l6480_1.o(FSymTab)
    __fsym_rotate                            0x08017230   Data          12  finsh_l6480_1.o(FSymTab)
    __fsym_move                              0x0801723c   Data          12  finsh_l6480_1.o(FSymTab)
    __fsym_go                                0x08017248   Data          12  finsh_l6480_1.o(FSymTab)
    __fsym_stop                              0x08017254   Data          12  finsh_l6480_1.o(FSymTab)
    __fsym_set                               0x08017260   Data          12  finsh_l6480_1.o(FSymTab)
    __fsym_get                               0x0801726c   Data          12  finsh_l6480_1.o(FSymTab)
    __fsym_readPin                           0x08017278   Data          12  finsh_logic.o(FSymTab)
    __fsym_readPins                          0x08017284   Data          12  finsh_logic.o(FSymTab)
    __fsym_writePin                          0x08017290   Data          12  finsh_logic.o(FSymTab)
    __fsym_writePins                         0x0801729c   Data          12  finsh_logic.o(FSymTab)
    __fsym_rgbSensor_init                    0x080172a8   Data          12  finsh_rgb_sensor_1.o(FSymTab)
    __fsym_rgbSensor_loop                    0x080172b4   Data          12  finsh_rgb_sensor_1.o(FSymTab)
    __fsym_rtc_basic                         0x080172c0   Data          12  finsh_rtc_1.o(FSymTab)
    __fsym_rtc_clock                         0x080172cc   Data          12  finsh_rtc_1.o(FSymTab)
    __fsym_calendar_app                      0x080172d8   Data          12  finsh_rtc_1.o(FSymTab)
    __fsym_exit_start                        0x080172e4   Data          12  finsh_test.o(FSymTab)
    __fsym_get_temp                          0x080172f0   Data          12  finsh_temp_sensor.o(FSymTab)
    FSymTab$$Limit                           0x080172fc   Number         0  finsh_temp_sensor.o(FSymTab)
    Region$$Table$$Base                      0x080172fc   Number         0  anon$$obj.o(Region$$Table)
    Region$$Table$$Limit                     0x0801731c   Number         0  anon$$obj.o(Region$$Table)
    VSymTab$$Base                            0x0801731c   Number         0  cmd.o(VSymTab)
    __vsym_dummy                             0x0801731c   Data          16  cmd.o(VSymTab)
    VSymTab$$Limit                           0x0801732c   Number         0  cmd.o(VSymTab)
    uart1                                    0x20000000   Data          24  usart.o(.data)
    SystemCoreClock                          0x20000018   Data           4  system_stm32f10x.o(.data)
    AHBPrescTable                            0x2000001c   Data          16  system_stm32f10x.o(.data)
    rt_interrupt_nest                        0x20000050   Data           1  irq.o(.data)
    rt_assert_hook                           0x2000005c   Data           4  kservice.o(.data)
    rt_object_container                      0x20000080   Data         144  object.o(.data)
    rt_object_trytake_hook                   0x20000118   Data           4  object.o(.data)
    rt_object_take_hook                      0x2000011c   Data           4  object.o(.data)
    rt_object_put_hook                       0x20000120   Data           4  object.o(.data)
    rt_current_thread                        0x20000128   Data           4  scheduler.o(.data)
    rt_current_priority                      0x2000012c   Data           1  scheduler.o(.data)
    rt_thread_ready_priority_group           0x20000130   Data           4  scheduler.o(.data)
    rt_thread_defunct                        0x20000134   Data           8  scheduler.o(.data)
    rt_interrupt_from_thread                 0x2000015c   Data           4  cpuport.o(.data)
    rt_interrupt_to_thread                   0x20000160   Data           4  cpuport.o(.data)
    rt_thread_switch_interrupt_flag          0x20000164   Data           4  cpuport.o(.data)
    shell                                    0x2000017c   Data           4  shell.o(.data)
    _syscall_table_begin                     0x20000180   Data           4  symbol.o(.data)
    _syscall_table_end                       0x20000184   Data           4  symbol.o(.data)
    _sysvar_table_begin                      0x20000188   Data           4  symbol.o(.data)
    _sysvar_table_end                        0x2000018c   Data           4  symbol.o(.data)
    finsh_compile_sp                         0x20000194   Data           4  finsh_compiler.o(.data)
    finsh_compile_pc                         0x20000198   Data           4  finsh_compiler.o(.data)
    global_errno                             0x2000019c   Data           1  finsh_error.o(.data)
    global_sysvar_list                       0x200001e4   Data           4  finsh_var.o(.data)
    finsh_sp                                 0x200001e8   Data           4  finsh_vm.o(.data)
    finsh_pc                                 0x200001ec   Data           4  finsh_vm.o(.data)
    global_syscall_list                      0x200001f0   Data           4  finsh_vm.o(.data)
    dev                                      0x20000204   Data           4  mcu_exit.o(.data)
    exit0_handler                            0x20000208   Data           4  mcu_exit.o(.data)
    exit1_handler                            0x2000020c   Data           4  mcu_exit.o(.data)
    exit2_handler                            0x20000210   Data           4  mcu_exit.o(.data)
    exit3_handler                            0x20000214   Data           4  mcu_exit.o(.data)
    exit4_handler                            0x20000218   Data           4  mcu_exit.o(.data)
    exit5_handler                            0x2000021c   Data           4  mcu_exit.o(.data)
    exit6_handler                            0x20000220   Data           4  mcu_exit.o(.data)
    exit7_handler                            0x20000224   Data           4  mcu_exit.o(.data)
    exit8_handler                            0x20000228   Data           4  mcu_exit.o(.data)
    exit9_handler                            0x2000022c   Data           4  mcu_exit.o(.data)
    exit10_handler                           0x20000230   Data           4  mcu_exit.o(.data)
    exit11_handler                           0x20000234   Data           4  mcu_exit.o(.data)
    exit12_handler                           0x20000238   Data           4  mcu_exit.o(.data)
    exit13_handler                           0x2000023c   Data           4  mcu_exit.o(.data)
    exit14_handler                           0x20000240   Data           4  mcu_exit.o(.data)
    exit15_handler                           0x20000244   Data           4  mcu_exit.o(.data)
    PA0                                      0x20000248   Data           8  mcu_gpio.o(.data)
    PA1                                      0x20000250   Data           8  mcu_gpio.o(.data)
    PA2                                      0x20000258   Data           8  mcu_gpio.o(.data)
    PA3                                      0x20000260   Data           8  mcu_gpio.o(.data)
    PA4                                      0x20000268   Data           8  mcu_gpio.o(.data)
    PA5                                      0x20000270   Data           8  mcu_gpio.o(.data)
    PA6                                      0x20000278   Data           8  mcu_gpio.o(.data)
    PA7                                      0x20000280   Data           8  mcu_gpio.o(.data)
    PA8                                      0x20000288   Data           8  mcu_gpio.o(.data)
    PA9                                      0x20000290   Data           8  mcu_gpio.o(.data)
    PA10                                     0x20000298   Data           8  mcu_gpio.o(.data)
    PA11                                     0x200002a0   Data           8  mcu_gpio.o(.data)
    PA12                                     0x200002a8   Data           8  mcu_gpio.o(.data)
    PA13                                     0x200002b0   Data           8  mcu_gpio.o(.data)
    PA14                                     0x200002b8   Data           8  mcu_gpio.o(.data)
    PA15                                     0x200002c0   Data           8  mcu_gpio.o(.data)
    PB0                                      0x200002c8   Data           8  mcu_gpio.o(.data)
    PB1                                      0x200002d0   Data           8  mcu_gpio.o(.data)
    PB2                                      0x200002d8   Data           8  mcu_gpio.o(.data)
    PB3                                      0x200002e0   Data           8  mcu_gpio.o(.data)
    PB4                                      0x200002e8   Data           8  mcu_gpio.o(.data)
    PB5                                      0x200002f0   Data           8  mcu_gpio.o(.data)
    PB6                                      0x200002f8   Data           8  mcu_gpio.o(.data)
    PB7                                      0x20000300   Data           8  mcu_gpio.o(.data)
    PB8                                      0x20000308   Data           8  mcu_gpio.o(.data)
    PB9                                      0x20000310   Data           8  mcu_gpio.o(.data)
    PB10                                     0x20000318   Data           8  mcu_gpio.o(.data)
    PB11                                     0x20000320   Data           8  mcu_gpio.o(.data)
    PB12                                     0x20000328   Data           8  mcu_gpio.o(.data)
    PB13                                     0x20000330   Data           8  mcu_gpio.o(.data)
    PB14                                     0x20000338   Data           8  mcu_gpio.o(.data)
    PB15                                     0x20000340   Data           8  mcu_gpio.o(.data)
    PC0                                      0x20000348   Data           8  mcu_gpio.o(.data)
    PC1                                      0x20000350   Data           8  mcu_gpio.o(.data)
    PC2                                      0x20000358   Data           8  mcu_gpio.o(.data)
    PC3                                      0x20000360   Data           8  mcu_gpio.o(.data)
    PC4                                      0x20000368   Data           8  mcu_gpio.o(.data)
    PC5                                      0x20000370   Data           8  mcu_gpio.o(.data)
    PC6                                      0x20000378   Data           8  mcu_gpio.o(.data)
    PC7                                      0x20000380   Data           8  mcu_gpio.o(.data)
    PC8                                      0x20000388   Data           8  mcu_gpio.o(.data)
    PC9                                      0x20000390   Data           8  mcu_gpio.o(.data)
    PC10                                     0x20000398   Data           8  mcu_gpio.o(.data)
    PC11                                     0x200003a0   Data           8  mcu_gpio.o(.data)
    PC12                                     0x200003a8   Data           8  mcu_gpio.o(.data)
    PC13                                     0x200003b0   Data           8  mcu_gpio.o(.data)
    PC14                                     0x200003b8   Data           8  mcu_gpio.o(.data)
    PC15                                     0x200003c0   Data           8  mcu_gpio.o(.data)
    PD0                                      0x200003c8   Data           8  mcu_gpio.o(.data)
    PD1                                      0x200003d0   Data           8  mcu_gpio.o(.data)
    PD2                                      0x200003d8   Data           8  mcu_gpio.o(.data)
    PD3                                      0x200003e0   Data           8  mcu_gpio.o(.data)
    PD4                                      0x200003e8   Data           8  mcu_gpio.o(.data)
    PD5                                      0x200003f0   Data           8  mcu_gpio.o(.data)
    PD6                                      0x200003f8   Data           8  mcu_gpio.o(.data)
    PD7                                      0x20000400   Data           8  mcu_gpio.o(.data)
    PD8                                      0x20000408   Data           8  mcu_gpio.o(.data)
    PD9                                      0x20000410   Data           8  mcu_gpio.o(.data)
    PD10                                     0x20000418   Data           8  mcu_gpio.o(.data)
    PD11                                     0x20000420   Data           8  mcu_gpio.o(.data)
    PD12                                     0x20000428   Data           8  mcu_gpio.o(.data)
    PD13                                     0x20000430   Data           8  mcu_gpio.o(.data)
    PD14                                     0x20000438   Data           8  mcu_gpio.o(.data)
    PD15                                     0x20000440   Data           8  mcu_gpio.o(.data)
    PE0                                      0x20000448   Data           8  mcu_gpio.o(.data)
    PE1                                      0x20000450   Data           8  mcu_gpio.o(.data)
    PE2                                      0x20000458   Data           8  mcu_gpio.o(.data)
    PE3                                      0x20000460   Data           8  mcu_gpio.o(.data)
    PE4                                      0x20000468   Data           8  mcu_gpio.o(.data)
    PE5                                      0x20000470   Data           8  mcu_gpio.o(.data)
    PE6                                      0x20000478   Data           8  mcu_gpio.o(.data)
    PE7                                      0x20000480   Data           8  mcu_gpio.o(.data)
    PE8                                      0x20000488   Data           8  mcu_gpio.o(.data)
    PE9                                      0x20000490   Data           8  mcu_gpio.o(.data)
    PE10                                     0x20000498   Data           8  mcu_gpio.o(.data)
    PE11                                     0x200004a0   Data           8  mcu_gpio.o(.data)
    PE12                                     0x200004a8   Data           8  mcu_gpio.o(.data)
    PE13                                     0x200004b0   Data           8  mcu_gpio.o(.data)
    PE14                                     0x200004b8   Data           8  mcu_gpio.o(.data)
    PE15                                     0x200004c0   Data           8  mcu_gpio.o(.data)
    PF0                                      0x200004c8   Data           8  mcu_gpio.o(.data)
    PF1                                      0x200004d0   Data           8  mcu_gpio.o(.data)
    PF2                                      0x200004d8   Data           8  mcu_gpio.o(.data)
    PF3                                      0x200004e0   Data           8  mcu_gpio.o(.data)
    PF4                                      0x200004e8   Data           8  mcu_gpio.o(.data)
    PF5                                      0x200004f0   Data           8  mcu_gpio.o(.data)
    PF6                                      0x200004f8   Data           8  mcu_gpio.o(.data)
    PF7                                      0x20000500   Data           8  mcu_gpio.o(.data)
    PF8                                      0x20000508   Data           8  mcu_gpio.o(.data)
    PF9                                      0x20000510   Data           8  mcu_gpio.o(.data)
    PF10                                     0x20000518   Data           8  mcu_gpio.o(.data)
    PF11                                     0x20000520   Data           8  mcu_gpio.o(.data)
    PF12                                     0x20000528   Data           8  mcu_gpio.o(.data)
    PF13                                     0x20000530   Data           8  mcu_gpio.o(.data)
    PF14                                     0x20000538   Data           8  mcu_gpio.o(.data)
    PF15                                     0x20000540   Data           8  mcu_gpio.o(.data)
    PG0                                      0x20000548   Data           8  mcu_gpio.o(.data)
    PG1                                      0x20000550   Data           8  mcu_gpio.o(.data)
    PG2                                      0x20000558   Data           8  mcu_gpio.o(.data)
    PG3                                      0x20000560   Data           8  mcu_gpio.o(.data)
    PG4                                      0x20000568   Data           8  mcu_gpio.o(.data)
    PG5                                      0x20000570   Data           8  mcu_gpio.o(.data)
    PG6                                      0x20000578   Data           8  mcu_gpio.o(.data)
    PG7                                      0x20000580   Data           8  mcu_gpio.o(.data)
    PG8                                      0x20000588   Data           8  mcu_gpio.o(.data)
    PG9                                      0x20000590   Data           8  mcu_gpio.o(.data)
    PG10                                     0x20000598   Data           8  mcu_gpio.o(.data)
    PG11                                     0x200005a0   Data           8  mcu_gpio.o(.data)
    PG12                                     0x200005a8   Data           8  mcu_gpio.o(.data)
    PG13                                     0x200005b0   Data           8  mcu_gpio.o(.data)
    PG14                                     0x200005b8   Data           8  mcu_gpio.o(.data)
    PG15                                     0x200005c0   Data           8  mcu_gpio.o(.data)
    irq_Sec_Irq_handler                      0x200005c8   Data           4  mcu_rtc.o(.data)
    irq_Alr_Irq_handler                      0x200005cc   Data           4  mcu_rtc.o(.data)
    irq_Ow_Irq_handler                       0x200005d0   Data           4  mcu_rtc.o(.data)
    SoftI2c                                  0x200005d4   Data          12  mcu_softi2c.o(.data)
    spi                                      0x200005e0   Data           8  mcu_spi.o(.data)
    lsb                                      0x200005e8   Data           4  mcp3421.o(.data)
    gain                                     0x200005ec   Data           1  mcp3421.o(.data)
    hc165                                    0x200005f0   Data          28  74hc165.o(.data)
    hc595                                    0x2000060c   Data          28  74hc595.o(.data)
    w25qxx                                   0x20000628   Data          40  w25qxx.o(.data)
    adc1                                     0x20000650   Data          12  finsh_adc_1.o(.data)
    at2404_pin                               0x20000660   Data           8  finsh_eeprom.o(.data)
    at24c256                                 0x2000066c   Data          28  finsh_eeprom.o(.data)
    w25q32_spi_config                        0x20000688   Data          16  finsh_flash_1.o(.data)
    L6480s                                   0x2000069c   Data          32  finsh_l6480_1.o(.data)
    hc165_in                                 0x200006bc   Data           1  finsh_logic.o(.data)
    rgbSensor1                               0x200006c0   Data          24  finsh_rgb_sensor_1.o(.data)
    data8bit                                 0x200006d8   Data           3  finsh_rgb_sensor_1.o(.data)
    rtc                                      0x200006dc   Data          40  finsh_rtc_1.o(.data)
    SensorIt1                                0x20000704   Data          16  finsh_test.o(.data)
    dataTemp_EE                              0x20000714   Data           8  at24cxx.o(.data)
    at24cxx                                  0x2000071c   Data          12  at24cxx.o(.data)
    serial1                                  0x200009ac   Data          84  usart.o(.bss)
    rt_thread_priority_table                 0x20000c20   Data         256  scheduler.o(.bss)
    finsh_heap                               0x200015a0   Data         128  finsh_heap.o(.bss)
    global_node_table                        0x20001620   Data         320  finsh_node.o(.bss)
    global_variable                          0x20001760   Data         192  finsh_var.o(.bss)
    finsh_vm_stack                           0x20001820   Data         256  finsh_vm.o(.bss)
    text_segment                             0x20001920   Data         128  finsh_vm.o(.bss)
    W25QXX_BUFFER                            0x200019a0   Data        4096  w25qxx.o(.bss)
    calendar                                 0x200029a0   Data          53  calendar.o(.bss)
    currentDat                               0x200029d6   Data          20  finsh_adc_1.o(.bss)
    MotorConfig                              0x200029ec   Data         156  finsh_l6480_1.o(.bss)
    data_in                                  0x20002a88   Data          16  finsh_logic.o(.bss)
    data                                     0x20002a98   Data          12  finsh_rgb_sensor_1.o(.bss)
    Image$$RW_IRAM1$$ZI$$Limit               0x20002ea8   Number         0  anon$$obj.o ABSOLUTE
    __initial_sp                             0x20002ea8   Data           0  startup_stm32f10x_hd.o(STACK)



==============================================================================

Memory Map of the image

  Image Entry point : 0x08000131

  Load Region LR_IROM1 (Base: 0x08000000, Size: 0x00017a58, Max: 0x00080000, ABSOLUTE, COMPRESSED[0x000176c0])

    Execution Region ER_IROM1 (Base: 0x08000000, Size: 0x0001732c, Max: 0x00080000, ABSOLUTE)

    Base Addr    Size         Type   Attr      Idx    E Section Name        Object

    0x08000000   0x00000130   Data   RO          253    RESET               startup_stm32f10x_hd.o
    0x08000130   0x00000000   Code   RO         2005  * .ARM.Collect$$$$00000000  mc_w.l(entry.o)
    0x08000130   0x00000004   Code   RO         2332    .ARM.Collect$$$$00000001  mc_w.l(entry2.o)
    0x08000134   0x00000004   Code   RO         2335    .ARM.Collect$$$$00000004  mc_w.l(entry5.o)
    0x08000138   0x00000000   Code   RO         2337    .ARM.Collect$$$$00000008  mc_w.l(entry7b.o)
    0x08000138   0x00000000   Code   RO         2339    .ARM.Collect$$$$0000000A  mc_w.l(entry8b.o)
    0x08000138   0x00000008   Code   RO         2340    .ARM.Collect$$$$0000000B  mc_w.l(entry9a.o)
    0x08000140   0x00000000   Code   RO         2342    .ARM.Collect$$$$0000000D  mc_w.l(entry10a.o)
    0x08000140   0x00000000   Code   RO         2344    .ARM.Collect$$$$0000000F  mc_w.l(entry11a.o)
    0x08000140   0x00000004   Code   RO         2333    .ARM.Collect$$$$00002712  mc_w.l(entry2.o)
    0x08000144   0x00000094   Code   RO            1    .text               application.o
    0x080001d8   0x000000b0   Code   RO          150    .text               startup.o
    0x08000288   0x00000098   Code   RO          166    .text               board.o
    0x08000320   0x00000012   Code   RO          185    .text               stm32f10x_it.o
    0x08000332   0x00000002   PAD
    0x08000334   0x00000490   Code   RO          200    .text               usart.o
    0x080007c4   0x000001e8   Code   RO          233    .text               system_stm32f10x.o
    0x080009ac   0x00000024   Code   RO          254    .text               startup_stm32f10x_hd.o
    0x080009d0   0x000001b8   Code   RO          259    .text               misc.o
    0x08000b88   0x0000029c   Code   RO          360    .text               stm32f10x_bkp.o
    0x08000e24   0x000008f8   Code   RO          446    .text               stm32f10x_dma.o
    0x0800171c   0x000002ac   Code   RO          462    .text               stm32f10x_exti.o
    0x080019c8   0x00000a28   Code   RO          510    .text               stm32f10x_gpio.o
    0x080023f0   0x0000018c   Code   RO          555    .text               stm32f10x_pwr.o
    0x0800257c   0x000007f4   Code   RO          568    .text               stm32f10x_rcc.o
    0x08002d70   0x000001f8   Code   RO          586    .text               stm32f10x_rtc.o
    0x08002f68   0x0000091c   Code   RO          615    .text               stm32f10x_spi.o
    0x08003884   0x00000d34   Code   RO          647    .text               stm32f10x_usart.o
    0x080045b8   0x00000064   Code   RO          676    .text               clock.o
    0x0800461c   0x00000324   Code   RO          690    .text               device.o
    0x08004940   0x00000138   Code   RO          704    .text               idle.o
    0x08004a78   0x00001654   Code   RO          724    .text               ipc.o
    0x080060cc   0x0000007c   Code   RO          741    .text               irq.o
    0x08006148   0x00000ac4   Code   RO          756    .text               kservice.o
    0x08006c0c   0x00000874   Code   RO          776    .text               mem.o
    0x08007480   0x000002dc   Code   RO          814    .text               object.o
    0x0800775c   0x000002e8   Code   RO          833    .text               scheduler.o
    0x08007a44   0x00000604   Code   RO          854    .text               thread.o
    0x08008048   0x0000045c   Code   RO          873    .text               timer.o
    0x080084a4   0x000005d4   Code   RO          892    .text               cpuport.o
    0x08008a78   0x000000ec   Code   RO          908    .text               context_rvds.o
    0x08008b64   0x00000c00   Code   RO          946    .text               serial.o
    0x08009764   0x000001c8   Code   RO          959    .text               completion.o
    0x0800992c   0x00000424   Code   RO          975    .text               dataqueue.o
    0x08009d50   0x000010e0   Code   RO         1073    .text               can.o
    0x0800ae30   0x000009ac   Code   RO         1095    .text               shell.o
    0x0800b7dc   0x00000d8c   Code   RO         1127    .text               cmd.o
    0x0800c568   0x00001818   Code   RO         1151    .text               finsh_compiler.o
    0x0800dd80   0x0000002c   Code   RO         1188    .text               finsh_error.o
    0x0800ddac   0x00000210   Code   RO         1204    .text               finsh_heap.o
    0x0800dfbc   0x00000058   Code   RO         1220    .text               finsh_init.o
    0x0800e014   0x00000184   Code   RO         1238    .text               finsh_node.o
    0x0800e198   0x00000ad8   Code   RO         1253    .text               finsh_ops.o
    0x0800ec70   0x0000097c   Code   RO         1271    .text               finsh_parser.o
    0x0800f5ec   0x0000019c   Code   RO         1286    .text               finsh_var.o
    0x0800f788   0x000000e4   Code   RO         1309    .text               finsh_vm.o
    0x0800f86c   0x00000680   Code   RO         1336    .text               finsh_token.o
    0x0800feec   0x00000060   Code   RO         1351    .text               components.o
    0x0800ff4c   0x00000090   Code   RO         1369    .text               led.o
    0x0800ffdc   0x00000088   Code   RO         1397    .text               delay.o
    0x08010064   0x000000c4   Code   RO         1412    .text               sys.o
    0x08010128   0x0000005c   Code   RO         1424    .text               crc.o
    0x08010184   0x0000045c   Code   RO         1442    .text               mcu_exit.o
    0x080105e0   0x00000100   Code   RO         1460    .text               mcu_gpio.o
    0x080106e0   0x00000318   Code   RO         1478    .text               mcu_rtc.o
    0x080109f8   0x000004de   Code   RO         1497    .text               mcu_softi2c.o
    0x08010ed6   0x00000002   PAD
    0x08010ed8   0x00000280   Code   RO         1534    .text               mcu_spi.o
    0x08011158   0x00000198   Code   RO         1572    .text               mcp3421.o
    0x080112f0   0x00000098   Code   RO         1594    .text               74hc165.o
    0x08011388   0x00000070   Code   RO         1612    .text               74hc595.o
    0x080113f8   0x000003f4   Code   RO         1630    .text               w25qxx.o
    0x080117ec   0x0000034c   Code   RO         1653    .text               isl29125.o
    0x08011b38   0x000001b4   Code   RO         1671    .text               ds18b20.o
    0x08011cec   0x0000049c   Code   RO         1686    .text               l6480.o
    0x08012188   0x00000de0   Code   RO         1719    .text               calendar.o
    0x08012f68   0x00000174   Code   RO         1737    .text               finsh_adc_1.o
    0x080130dc   0x00000270   Code   RO         1759    .text               finsh_eeprom.o
    0x0801334c   0x000000dc   Code   RO         1784    .text               finsh_flash_1.o
    0x08013428   0x000003b4   Code   RO         1805    .text               finsh_l6480_1.o
    0x080137dc   0x00000588   Code   RO         1826    .text               finsh_logic.o
    0x08013d64   0x000000f4   Code   RO         1854    .text               finsh_rgb_sensor_1.o
    0x08013e58   0x00000230   Code   RO         1872    .text               finsh_rtc_1.o
    0x08014088   0x00000064   Code   RO         1896    .text               finsh_test.o
    0x080140ec   0x0000003c   Code   RO         1913    .text               finsh_temp_sensor.o
    0x08014128   0x000002bc   Code   RO         1976    .text               at24cxx.o
    0x080143e4   0x00000024   Code   RO         2008    .text               mc_w.l(memcpya.o)
    0x08014408   0x00000024   Code   RO         2010    .text               mc_w.l(memseta.o)
    0x0801442c   0x00000018   Code   RO         2012    .text               mc_w.l(strncpy.o)
    0x08014444   0x0000000e   Code   RO         2014    .text               mc_w.l(strlen.o)
    0x08014452   0x0000001c   Code   RO         2016    .text               mc_w.l(strcmp.o)
    0x0801446e   0x0000001e   Code   RO         2018    .text               mc_w.l(strncmp.o)
    0x0801448c   0x0000001a   Code   RO         2283    .text               mc_w.l(atoi.o)
    0x080144a6   0x00000064   Code   RO         2285    .text               mf_w.l(fmul.o)
    0x0801450a   0x0000014e   Code   RO         2287    .text               mf_w.l(dadd.o)
    0x08014658   0x000000e4   Code   RO         2289    .text               mf_w.l(dmul.o)
    0x0801473c   0x000000de   Code   RO         2291    .text               mf_w.l(ddiv.o)
    0x0801481a   0x0000000a   Code   RO         2293    .text               mf_w.l(ffltui.o)
    0x08014824   0x00000022   Code   RO         2295    .text               mf_w.l(dflti.o)
    0x08014846   0x0000001a   Code   RO         2297    .text               mf_w.l(dfltui.o)
    0x08014860   0x00000026   Code   RO         2301    .text               mf_w.l(f2d.o)
    0x08014886   0x00000038   Code   RO         2303    .text               mf_w.l(d2f.o)
    0x080148be   0x0000002c   Code   RO         2349    .text               mc_w.l(uidiv.o)
    0x080148ea   0x00000062   Code   RO         2351    .text               mc_w.l(uldiv.o)
    0x0801494c   0x0000001e   Code   RO         2353    .text               mc_w.l(llshl.o)
    0x0801496a   0x00000020   Code   RO         2355    .text               mc_w.l(llushr.o)
    0x0801498a   0x00000024   Code   RO         2357    .text               mc_w.l(llsshr.o)
    0x080149ae   0x00000070   Code   RO         2366    .text               mc_w.l(strtol.o)
    0x08014a1e   0x00000000   Code   RO         2368    .text               mc_w.l(iusefp.o)
    0x08014a1e   0x0000006e   Code   RO         2369    .text               mf_w.l(fepilogue.o)
    0x08014a8c   0x000000ba   Code   RO         2371    .text               mf_w.l(depilogue.o)
    0x08014b46   0x00000030   Code   RO         2375    .text               mf_w.l(dfixul.o)
    0x08014b76   0x00000002   PAD
    0x08014b78   0x00000030   Code   RO         2377    .text               mf_w.l(cdrcmple.o)
    0x08014ba8   0x00000024   Code   RO         2379    .text               mc_w.l(init.o)
    0x08014bcc   0x00000008   Code   RO         2382    .text               mc_w.l(ctype_o.o)
    0x08014bd4   0x0000009e   Code   RO         2410    .text               mc_w.l(_strtoul.o)
    0x08014c72   0x0000001c   Code   RO         2417    .text               mc_w.l(_chval.o)
    0x08014c8e   0x00000056   Code   RO         2427    .text               mc_w.l(__dczerorl2.o)
    0x08014ce4   0x00000028   Code   RO         2257    i.__0sprintf        mc_w.l(printfa.o)
    0x08014d0c   0x00000008   Code   RO         2359    i.__aeabi_errno_addr  mc_w.l(errno.o)
    0x08014d14   0x0000000e   Code   RO         2421    i.__scatterload_copy  mc_w.l(handlers.o)
    0x08014d22   0x00000002   Code   RO         2422    i.__scatterload_null  mc_w.l(handlers.o)
    0x08014d24   0x0000000e   Code   RO         2423    i.__scatterload_zeroinit  mc_w.l(handlers.o)
    0x08014d32   0x00000002   PAD
    0x08014d34   0x00000184   Code   RO         2262    i._fp_digits        mc_w.l(printfa.o)
    0x08014eb8   0x000006dc   Code   RO         2263    i._printf_core      mc_w.l(printfa.o)
    0x08015594   0x00000024   Code   RO         2264    i._printf_post_padding  mc_w.l(printfa.o)
    0x080155b8   0x0000002e   Code   RO         2265    i._printf_pre_padding  mc_w.l(printfa.o)
    0x080155e6   0x0000000a   Code   RO         2267    i._sputc            mc_w.l(printfa.o)
    0x080155f0   0x0000005c   Data   RO          202    .constdata          usart.o
    0x0801564c   0x000000a8   Data   RO          691    .constdata          device.o
    0x080156f4   0x00000016   Data   RO          706    .constdata          idle.o
    0x0801570a   0x000001d7   Data   RO          725    .constdata          ipc.o
    0x080158e1   0x00000122   Data   RO          758    .constdata          kservice.o
    0x08015a03   0x00000046   Data   RO          778    .constdata          mem.o
    0x08015a49   0x0000005e   Data   RO          815    .constdata          object.o
    0x08015aa7   0x0000004e   Data   RO          835    .constdata          scheduler.o
    0x08015af5   0x000000aa   Data   RO          855    .constdata          thread.o
    0x08015b9f   0x0000005c   Data   RO          874    .constdata          timer.o
    0x08015bfb   0x00000013   Data   RO          893    .constdata          cpuport.o
    0x08015c0e   0x00000124   Data   RO          947    .constdata          serial.o
    0x08015d32   0x00000039   Data   RO          960    .constdata          completion.o
    0x08015d6b   0x0000004b   Data   RO          976    .constdata          dataqueue.o
    0x08015db6   0x00000097   Data   RO         1074    .constdata          can.o
    0x08015e4d   0x00000060   Data   RO         1097    .constdata          shell.o
    0x08015ead   0x00000003   PAD
    0x08015eb0   0x00000050   Data   RO         1128    .constdata          cmd.o
    0x08015f00   0x000000c4   Data   RO         1254    .constdata          finsh_ops.o
    0x08015fc4   0x00000040   Data   RO         1337    .constdata          finsh_token.o
    0x08016004   0x00000300   Data   RO         1425    .constdata          crc.o
    0x08016304   0x000000a0   Data   RO         1977    .constdata          at24cxx.o
    0x080163a4   0x00000081   Data   RO         2383    .constdata          mc_w.l(ctype_o.o)
    0x08016425   0x00000003   PAD
    0x08016428   0x00000004   Data   RO         2384    .constdata          mc_w.l(ctype_o.o)
    0x0801642c   0x0000004d   Data   RO          260    .conststring        misc.o
    0x08016479   0x00000003   PAD
    0x0801647c   0x00000056   Data   RO          361    .conststring        stm32f10x_bkp.o
    0x080164d2   0x00000002   PAD
    0x080164d4   0x00000056   Data   RO          447    .conststring        stm32f10x_dma.o
    0x0801652a   0x00000002   PAD
    0x0801652c   0x00000057   Data   RO          463    .conststring        stm32f10x_exti.o
    0x08016583   0x00000001   PAD
    0x08016584   0x00000057   Data   RO          511    .conststring        stm32f10x_gpio.o
    0x080165db   0x00000001   PAD
    0x080165dc   0x00000056   Data   RO          556    .conststring        stm32f10x_pwr.o
    0x08016632   0x00000002   PAD
    0x08016634   0x00000056   Data   RO          569    .conststring        stm32f10x_rcc.o
    0x0801668a   0x00000002   PAD
    0x0801668c   0x00000056   Data   RO          587    .conststring        stm32f10x_rtc.o
    0x080166e2   0x00000002   PAD
    0x080166e4   0x00000056   Data   RO          616    .conststring        stm32f10x_spi.o
    0x0801673a   0x00000002   PAD
    0x0801673c   0x00000058   Data   RO          648    .conststring        stm32f10x_usart.o
    0x08016794   0x000000ed   Data   RO          779    .conststring        mem.o
    0x08016881   0x00000003   PAD
    0x08016884   0x000001d6   Data   RO         1075    .conststring        can.o
    0x08016a5a   0x00000002   PAD
    0x08016a5c   0x0000015d   Data   RO         1129    .conststring        cmd.o
    0x08016bb9   0x00000003   PAD
    0x08016bbc   0x000000f3   Data   RO         1189    .conststring        finsh_error.o
    0x08016caf   0x00000001   PAD
    0x08016cb0   0x0000003e   Data   RO         1338    .conststring        finsh_token.o
    0x08016cee   0x00000027   Data   RO          781    .rodata.name        mem.o
    0x08016d15   0x00000026   Data   RO         1077    .rodata.name        can.o
    0x08016d3b   0x000001b3   Data   RO         1131    .rodata.name        cmd.o
    0x08016eee   0x00000021   Data   RO         1371    .rodata.name        led.o
    0x08016f0f   0x0000001f   Data   RO         1740    .rodata.name        finsh_adc_1.o
    0x08016f2e   0x00000052   Data   RO         1761    .rodata.name        finsh_eeprom.o
    0x08016f80   0x00000050   Data   RO         1786    .rodata.name        finsh_flash_1.o
    0x08016fd0   0x0000002f   Data   RO         1808    .rodata.name        finsh_l6480_1.o
    0x08016fff   0x000000b2   Data   RO         1829    .rodata.name        finsh_logic.o
    0x080170b1   0x00000022   Data   RO         1857    .rodata.name        finsh_rgb_sensor_1.o
    0x080170d3   0x00000027   Data   RO         1874    .rodata.name        finsh_rtc_1.o
    0x080170fa   0x0000000d   Data   RO         1898    .rodata.name        finsh_test.o
    0x08017107   0x0000000b   Data   RO         1914    .rodata.name        finsh_temp_sensor.o
    0x08017112   0x00000002   PAD
    0x08017114   0x00000004   Data   RO         1352    .rti_fn.0           components.o
    0x08017118   0x00000004   Data   RO         1353    .rti_fn.0.end       components.o
    0x0801711c   0x00000004   Data   RO         1354    .rti_fn.1.end       components.o
    0x08017120   0x00000004   Data   RO         1099    .rti_fn.3           shell.o
    0x08017124   0x00000004   Data   RO         1355    .rti_fn.6.end       components.o
    0x08017128   0x0000000c   Data   RO          782    FSymTab             mem.o
    0x08017134   0x0000000c   Data   RO         1078    FSymTab             can.o
    0x08017140   0x00000090   Data   RO         1132    FSymTab             cmd.o
    0x080171d0   0x0000000c   Data   RO         1372    FSymTab             led.o
    0x080171dc   0x0000000c   Data   RO         1741    FSymTab             finsh_adc_1.o
    0x080171e8   0x00000024   Data   RO         1762    FSymTab             finsh_eeprom.o
    0x0801720c   0x00000018   Data   RO         1787    FSymTab             finsh_flash_1.o
    0x08017224   0x00000054   Data   RO         1809    FSymTab             finsh_l6480_1.o
    0x08017278   0x00000030   Data   RO         1830    FSymTab             finsh_logic.o
    0x080172a8   0x00000018   Data   RO         1858    FSymTab             finsh_rgb_sensor_1.o
    0x080172c0   0x00000024   Data   RO         1875    FSymTab             finsh_rtc_1.o
    0x080172e4   0x0000000c   Data   RO         1899    FSymTab             finsh_test.o
    0x080172f0   0x0000000c   Data   RO         1915    FSymTab             finsh_temp_sensor.o
    0x080172fc   0x00000020   Data   RO         2419    Region$$Table       anon$$obj.o
    0x0801731c   0x00000010   Data   RO         1133    VSymTab             cmd.o


    Execution Region RW_IRAM1 (Base: 0x20000000, Size: 0x00002ea8, Max: 0x00010000, ABSOLUTE, COMPRESSED[0x00000394])

    Base Addr    Size         Type   Attr      Idx    E Section Name        Object

    0x20000000   0x00000018   Data   RW          203    .data               usart.o
    0x20000018   0x00000014   Data   RW          234    .data               system_stm32f10x.o
    0x2000002c   0x00000014   Data   RW          570    .data               stm32f10x_rcc.o
    0x20000040   0x00000004   Data   RW          677    .data               clock.o
    0x20000044   0x00000004   Data   RW          707    .data               idle.o
    0x20000048   0x00000009   Data   RW          742    .data               irq.o
    0x20000051   0x00000003   PAD
    0x20000054   0x0000000c   Data   RW          759    .data               kservice.o
    0x20000060   0x00000020   Data   RW          780    .data               mem.o
    0x20000080   0x000000a4   Data   RW          816    .data               object.o
    0x20000124   0x0000001c   Data   RW          836    .data               scheduler.o
    0x20000140   0x0000000c   Data   RW          856    .data               thread.o
    0x2000014c   0x00000010   Data   RW          875    .data               timer.o
    0x2000015c   0x00000010   Data   RW          894    .data               cpuport.o
    0x2000016c   0x00000010   Data   RW         1076    .data               can.o
    0x2000017c   0x00000004   Data   RW         1098    .data               shell.o
    0x20000180   0x00000010   Data   RW         1114    .data               symbol.o
    0x20000190   0x00000004   Data   RW         1130    .data               cmd.o
    0x20000194   0x00000008   Data   RW         1152    .data               finsh_compiler.o
    0x2000019c   0x00000040   Data   RW         1190    .data               finsh_error.o
    0x200001dc   0x00000008   Data   RW         1206    .data               finsh_heap.o
    0x200001e4   0x00000004   Data   RW         1288    .data               finsh_var.o
    0x200001e8   0x0000000c   Data   RW         1311    .data               finsh_vm.o
    0x200001f4   0x00000001   Data   RW         1370    .data               led.o
    0x200001f5   0x00000003   PAD
    0x200001f8   0x00000050   Data   RW         1443    .data               mcu_exit.o
    0x20000248   0x00000380   Data   RW         1461    .data               mcu_gpio.o
    0x200005c8   0x0000000c   Data   RW         1479    .data               mcu_rtc.o
    0x200005d4   0x0000000c   Data   RW         1498    .data               mcu_softi2c.o
    0x200005e0   0x00000008   Data   RW         1535    .data               mcu_spi.o
    0x200005e8   0x00000005   Data   RW         1573    .data               mcp3421.o
    0x200005ed   0x00000003   PAD
    0x200005f0   0x0000001c   Data   RW         1595    .data               74hc165.o
    0x2000060c   0x0000001c   Data   RW         1613    .data               74hc595.o
    0x20000628   0x00000028   Data   RW         1632    .data               w25qxx.o
    0x20000650   0x0000000d   Data   RW         1739    .data               finsh_adc_1.o
    0x2000065d   0x00000003   PAD
    0x20000660   0x00000028   Data   RW         1760    .data               finsh_eeprom.o
    0x20000688   0x00000011   Data   RW         1785    .data               finsh_flash_1.o
    0x20000699   0x00000003   PAD
    0x2000069c   0x00000020   Data   RW         1807    .data               finsh_l6480_1.o
    0x200006bc   0x00000003   Data   RW         1828    .data               finsh_logic.o
    0x200006bf   0x00000001   PAD
    0x200006c0   0x0000001b   Data   RW         1856    .data               finsh_rgb_sensor_1.o
    0x200006db   0x00000001   PAD
    0x200006dc   0x00000028   Data   RW         1873    .data               finsh_rtc_1.o
    0x20000704   0x00000010   Data   RW         1897    .data               finsh_test.o
    0x20000714   0x00000014   Data   RW         1978    .data               at24cxx.o
    0x20000728   0x00000004   Data   RW         2362    .data               mc_w.l(errno.o)
    0x2000072c   0x00000280   Zero   RW            2    .bss                application.o
    0x200009ac   0x00000054   Zero   RW          201    .bss                usart.o
    0x20000a00   0x00000180   Zero   RW          705    .bss                idle.o
    0x20000b80   0x00000080   Zero   RW          757    .bss                kservice.o
    0x20000c00   0x00000020   Zero   RW          777    .bss                mem.o
    0x20000c20   0x00000100   Zero   RW          834    .bss                scheduler.o
    0x20000d20   0x00000880   Zero   RW         1096    .bss                shell.o
    0x200015a0   0x00000080   Zero   RW         1205    .bss                finsh_heap.o
    0x20001620   0x00000140   Zero   RW         1239    .bss                finsh_node.o
    0x20001760   0x000000c0   Zero   RW         1287    .bss                finsh_var.o
    0x20001820   0x00000180   Zero   RW         1310    .bss                finsh_vm.o
    0x200019a0   0x00001000   Zero   RW         1631    .bss                w25qxx.o
    0x200029a0   0x00000035   Zero   RW         1720    .bss                calendar.o
    0x200029d5   0x00000001   PAD
    0x200029d6   0x00000014   Zero   RW         1738    .bss                finsh_adc_1.o
    0x200029ea   0x00000002   PAD
    0x200029ec   0x0000009c   Zero   RW         1806    .bss                finsh_l6480_1.o
    0x20002a88   0x00000010   Zero   RW         1827    .bss                finsh_logic.o
    0x20002a98   0x0000000c   Zero   RW         1855    .bss                finsh_rgb_sensor_1.o
    0x20002aa4   0x00000004   PAD
    0x20002aa8   0x00000400   Zero   RW          251    STACK               startup_stm32f10x_hd.o


==============================================================================

Image component sizes


      Code (inc. data)   RO Data    RW Data    ZI Data      Debug   Object Name

       152          6          0         28          0       1936   74hc165.o
       112          6          0         28          0       2050   74hc595.o
       148         26          0          0        640     260526   application.o
       700          8        160         20          0       5347   at24cxx.o
       152         22          0          0          0      16081   board.o
      3552         52          0          0         53       8761   calendar.o
      4320        528        671         16          0      10634   can.o
       100          6          0          4          0       1420   clock.o
      3468       1302       1024          4          0      11747   cmd.o
       456        124         57          0          0       3119   completion.o
        96         34         16          0          0       1788   components.o
       236         24          0          0          0        756   context_rvds.o
      1492        718         19         16          0       3859   cpuport.o
        92         14        768          0          0       1592   crc.o
      1060        114         75          0          0       6177   dataqueue.o
       136          8          0          0          0        971   delay.o
       804        132        168          0          0       4853   device.o
       436          4          0          0          0       2392   ds18b20.o
       372         46         43         13         20       2375   finsh_adc_1.o
      6168        154          0          8          0      10910   finsh_compiler.o
       624         90        118         40          0       5352   finsh_eeprom.o
        44         10        243         64          0       1629   finsh_error.o
       220         26        104         17          0       2042   finsh_flash_1.o
       528         18          0          8        128       3407   finsh_heap.o
        88          6          0          0          0       1584   finsh_init.o
       948         70        131         32        156      13010   finsh_l6480_1.o
      1416        184        226          3         16       3418   finsh_logic.o
       388          4          0          0        320       3328   finsh_node.o
      2776         36        196          0          0       8692   finsh_ops.o
      2428         32          0          0          0       9749   finsh_parser.o
       244        132         58         27         12       2011   finsh_rgb_sensor_1.o
       560        242         75         40          0       3378   finsh_rtc_1.o
        60         22         23          0          0       1319   finsh_temp_sensor.o
       100         32         25         16          0       1393   finsh_test.o
      1664         16        126          0          0       6228   finsh_token.o
       412         18          0          4        192       7409   finsh_var.o
       228         34          0         12        384       7026   finsh_vm.o
       312         74         22          4        384       3333   idle.o
      5716        422        471          0          0      20275   ipc.o
       124         14          0          9          0       1804   irq.o
       844         20          0          0          0       5631   isl29125.o
      2756        242        290         12        128      12196   kservice.o
      1180         74          0          0          0      19145   l6480.o
       144         14         45          1          0       6441   led.o
       408         28          0          5          0       4192   mcp3421.o
      1116        106          0         80          0       4348   mcu_exit.o
       256          8          0        896          0       5317   mcu_gpio.o
       792         30          0         12          0       4319   mcu_rtc.o
      1246          0          0         12          0       4555   mcu_softi2c.o
       640         40          0          8          0       4333   mcu_spi.o
      2164        560        358         32         32       5359   mem.o
       440         28         77          0          0      12937   misc.o
       732        150         94        164          0       5920   object.o
       744        150         78         28        256       4897   scheduler.o
      3072        434        292          0          0       9301   serial.o
      2476        250        100          4       2176       5143   shell.o
       176         88          0          0          0       1231   startup.o
        36          8        304          0       1024        880   startup_stm32f10x_hd.o
       668         14         86          0          0       4200   stm32f10x_bkp.o
      2296        118         86          0          0      15826   stm32f10x_dma.o
       684         14         87          0          0       5223   stm32f10x_exti.o
      2600        162         87          0          0      16085   stm32f10x_gpio.o
        18          0          0          0          0        905   stm32f10x_it.o
       396         16         86          0          0       2299   stm32f10x_pwr.o
      2036         68         86         20          0      19488   stm32f10x_rcc.o
       504          8         86          0          0       3074   stm32f10x_rtc.o
      2332         54         86          0          0      15462   stm32f10x_spi.o
      3380        102         88          0          0      17120   stm32f10x_usart.o
         0          0          0         16          0       4325   symbol.o
       196          0          0          0          0       1742   sys.o
       488         46          0         20          0       1951   system_stm32f10x.o
      1540        222        170         12          0       8673   thread.o
      1116        100         92         16          0       7039   timer.o
      1168        108         92         24         84      28997   usart.o
      1012         12          0         40       4096       7835   w25qxx.o

    ----------------------------------------------------------------------
     82592       8084       7652       1832      10108     740070   Object Totals
         0          0         32          0          0          0   (incl. Generated)
         4          0         31         17          7          0   (incl. Padding)

    ----------------------------------------------------------------------

      Code (inc. data)   RO Data    RW Data    ZI Data      Debug   Library Member Name

        86          0          0          0          0          0   __dczerorl2.o
        28          0          0          0          0         68   _chval.o
       158          0          0          0          0         92   _strtoul.o
        26          0          0          0          0         80   atoi.o
         8          4        133          0          0         68   ctype_o.o
         0          0          0          0          0          0   entry.o
         0          0          0          0          0          0   entry10a.o
         0          0          0          0          0          0   entry11a.o
         8          4          0          0          0          0   entry2.o
         4          0          0          0          0          0   entry5.o
         0          0          0          0          0          0   entry7b.o
         0          0          0          0          0          0   entry8b.o
         8          4          0          0          0          0   entry9a.o
         8          4          0          4          0         68   errno.o
        30          0          0          0          0          0   handlers.o
        36          8          0          0          0         68   init.o
         0          0          0          0          0          0   iusefp.o
        30          0          0          0          0         68   llshl.o
        36          0          0          0          0         68   llsshr.o
        32          0          0          0          0         68   llushr.o
        36          0          0          0          0         68   memcpya.o
        36          0          0          0          0        108   memseta.o
      2276         86          0          0          0        520   printfa.o
        28          0          0          0          0         76   strcmp.o
        14          0          0          0          0         68   strlen.o
        30          0          0          0          0         80   strncmp.o
        24          0          0          0          0         76   strncpy.o
       112          0          0          0          0         88   strtol.o
        44          0          0          0          0         80   uidiv.o
        98          0          0          0          0         92   uldiv.o
        48          0          0          0          0         68   cdrcmple.o
        56          0          0          0          0         88   d2f.o
       334          0          0          0          0        148   dadd.o
       222          0          0          0          0        100   ddiv.o
       186          0          0          0          0        176   depilogue.o
        48          0          0          0          0         68   dfixul.o
        34          0          0          0          0         76   dflti.o
        26          0          0          0          0         76   dfltui.o
       228          0          0          0          0         96   dmul.o
        38          0          0          0          0         68   f2d.o
       110          0          0          0          0        168   fepilogue.o
        10          0          0          0          0         68   ffltui.o
       100          0          0          0          0         76   fmul.o

    ----------------------------------------------------------------------
      4640        110        136          4          0       3180   Library Totals
         4          0          3          0          0          0   (incl. Padding)

    ----------------------------------------------------------------------

      Code (inc. data)   RO Data    RW Data    ZI Data      Debug   Library Name

      3196        110        133          4          0       1904   mc_w.l
      1440          0          0          0          0       1276   mf_w.l

    ----------------------------------------------------------------------
      4640        110        136          4          0       3180   Library Totals

    ----------------------------------------------------------------------

==============================================================================


      Code (inc. data)   RO Data    RW Data    ZI Data      Debug   

     87232       8194       7788       1836      10108     735630   Grand Totals
     87232       8194       7788        916      10108     735630   ELF Image Totals (compressed)
     87232       8194       7788        916          0          0   ROM Totals

==============================================================================

    Total RO  Size (Code + RO Data)                95020 (  92.79kB)
    Total RW  Size (RW Data + ZI Data)             11944 (  11.66kB)
    Total ROM Size (Code + RO Data + RW Data)      95936 (  93.69kB)

==============================================================================

